ARM GAS  C:\Users\mewin\AppData\Local\Temp\ccYfImcN.s 			page 1


   1              		.syntax unified
   2              		.cpu cortex-m0
   3              		.fpu softvfp
   4              		.eabi_attribute 20, 1
   5              		.eabi_attribute 21, 1
   6              		.eabi_attribute 23, 3
   7              		.eabi_attribute 24, 1
   8              		.eabi_attribute 25, 1
   9              		.eabi_attribute 26, 1
  10              		.eabi_attribute 30, 1
  11              		.eabi_attribute 34, 0
  12              		.eabi_attribute 18, 4
  13              		.thumb
  14              		.syntax unified
  15              		.file	"cyfitter_cfg.c"
  16              		.text
  17              	.Ltext0:
  18              		.cfi_sections	.debug_frame
  19              		.section	.text.cfg_write_bytes32,"ax",%progbits
  20              		.align	2
  21              		.code	16
  22              		.thumb_func
  23              		.type	cfg_write_bytes32, %function
  24              	cfg_write_bytes32:
  25              	.LFB4:
  26              		.file 1 "Generated_Source\\PSoC4\\cyfitter_cfg.c"
   1:Generated_Source\PSoC4/cyfitter_cfg.c **** 
   2:Generated_Source\PSoC4/cyfitter_cfg.c **** /*******************************************************************************
   3:Generated_Source\PSoC4/cyfitter_cfg.c **** * File Name: cyfitter_cfg.c
   4:Generated_Source\PSoC4/cyfitter_cfg.c **** * 
   5:Generated_Source\PSoC4/cyfitter_cfg.c **** * PSoC Creator  4.4
   6:Generated_Source\PSoC4/cyfitter_cfg.c **** *
   7:Generated_Source\PSoC4/cyfitter_cfg.c **** * Description:
   8:Generated_Source\PSoC4/cyfitter_cfg.c **** * This file contains device initialization code.
   9:Generated_Source\PSoC4/cyfitter_cfg.c **** * Except for the user defined sections in CyClockStartupError(), this file should not be modified.
  10:Generated_Source\PSoC4/cyfitter_cfg.c **** * This file is automatically generated by PSoC Creator.
  11:Generated_Source\PSoC4/cyfitter_cfg.c **** *
  12:Generated_Source\PSoC4/cyfitter_cfg.c **** ********************************************************************************
  13:Generated_Source\PSoC4/cyfitter_cfg.c **** * Copyright (c) 2007-2020 Cypress Semiconductor.  All rights reserved.
  14:Generated_Source\PSoC4/cyfitter_cfg.c **** * You may use this file only in accordance with the license, terms, conditions, 
  15:Generated_Source\PSoC4/cyfitter_cfg.c **** * disclaimers, and limitations in the end user license agreement accompanying 
  16:Generated_Source\PSoC4/cyfitter_cfg.c **** * the software package with which this file was provided.
  17:Generated_Source\PSoC4/cyfitter_cfg.c **** ********************************************************************************/
  18:Generated_Source\PSoC4/cyfitter_cfg.c **** 
  19:Generated_Source\PSoC4/cyfitter_cfg.c **** #include <string.h>
  20:Generated_Source\PSoC4/cyfitter_cfg.c **** #include "cytypes.h"
  21:Generated_Source\PSoC4/cyfitter_cfg.c **** #include "cydevice_trm.h"
  22:Generated_Source\PSoC4/cyfitter_cfg.c **** #include "cyfitter.h"
  23:Generated_Source\PSoC4/cyfitter_cfg.c **** #include "CyLib.h"
  24:Generated_Source\PSoC4/cyfitter_cfg.c **** #include "CyLFClk.h"
  25:Generated_Source\PSoC4/cyfitter_cfg.c **** #include "cyfitter_cfg.h"
  26:Generated_Source\PSoC4/cyfitter_cfg.c **** #include "cyapicallbacks.h"
  27:Generated_Source\PSoC4/cyfitter_cfg.c **** 
  28:Generated_Source\PSoC4/cyfitter_cfg.c **** 
  29:Generated_Source\PSoC4/cyfitter_cfg.c **** #if defined(__GNUC__) || defined(__ARMCC_VERSION)
  30:Generated_Source\PSoC4/cyfitter_cfg.c ****     #define CYPACKED 
  31:Generated_Source\PSoC4/cyfitter_cfg.c ****     #define CYPACKED_ATTR __attribute__ ((packed))
ARM GAS  C:\Users\mewin\AppData\Local\Temp\ccYfImcN.s 			page 2


  32:Generated_Source\PSoC4/cyfitter_cfg.c ****     #define CYALIGNED __attribute__ ((aligned))
  33:Generated_Source\PSoC4/cyfitter_cfg.c ****     #define CY_CFG_UNUSED __attribute__ ((unused))
  34:Generated_Source\PSoC4/cyfitter_cfg.c ****     #ifndef CY_CFG_SECTION
  35:Generated_Source\PSoC4/cyfitter_cfg.c ****         #define CY_CFG_SECTION __attribute__ ((section(".psocinit")))
  36:Generated_Source\PSoC4/cyfitter_cfg.c ****     #endif
  37:Generated_Source\PSoC4/cyfitter_cfg.c ****     
  38:Generated_Source\PSoC4/cyfitter_cfg.c ****     #if defined(__ARMCC_VERSION)
  39:Generated_Source\PSoC4/cyfitter_cfg.c ****         #define CY_CFG_MEMORY_BARRIER() __memory_changed()
  40:Generated_Source\PSoC4/cyfitter_cfg.c ****     #else
  41:Generated_Source\PSoC4/cyfitter_cfg.c ****         #define CY_CFG_MEMORY_BARRIER() __sync_synchronize()
  42:Generated_Source\PSoC4/cyfitter_cfg.c ****     #endif
  43:Generated_Source\PSoC4/cyfitter_cfg.c ****     
  44:Generated_Source\PSoC4/cyfitter_cfg.c **** #elif defined(__ICCARM__)
  45:Generated_Source\PSoC4/cyfitter_cfg.c ****     #include <intrinsics.h>
  46:Generated_Source\PSoC4/cyfitter_cfg.c **** 
  47:Generated_Source\PSoC4/cyfitter_cfg.c ****     #define CYPACKED __packed
  48:Generated_Source\PSoC4/cyfitter_cfg.c ****     #define CYPACKED_ATTR 
  49:Generated_Source\PSoC4/cyfitter_cfg.c ****     #define CYALIGNED _Pragma("data_alignment=4")
  50:Generated_Source\PSoC4/cyfitter_cfg.c ****     #define CY_CFG_UNUSED _Pragma("diag_suppress=Pe177")
  51:Generated_Source\PSoC4/cyfitter_cfg.c ****     #define CY_CFG_SECTION _Pragma("location=\".psocinit\"")
  52:Generated_Source\PSoC4/cyfitter_cfg.c ****     
  53:Generated_Source\PSoC4/cyfitter_cfg.c ****     #define CY_CFG_MEMORY_BARRIER() __DMB()
  54:Generated_Source\PSoC4/cyfitter_cfg.c ****     
  55:Generated_Source\PSoC4/cyfitter_cfg.c **** #else
  56:Generated_Source\PSoC4/cyfitter_cfg.c ****     #error Unsupported toolchain
  57:Generated_Source\PSoC4/cyfitter_cfg.c **** #endif
  58:Generated_Source\PSoC4/cyfitter_cfg.c **** 
  59:Generated_Source\PSoC4/cyfitter_cfg.c **** #ifndef CYCODE
  60:Generated_Source\PSoC4/cyfitter_cfg.c ****     #define CYCODE
  61:Generated_Source\PSoC4/cyfitter_cfg.c **** #endif
  62:Generated_Source\PSoC4/cyfitter_cfg.c **** #ifndef CYDATA
  63:Generated_Source\PSoC4/cyfitter_cfg.c ****     #define CYDATA
  64:Generated_Source\PSoC4/cyfitter_cfg.c **** #endif
  65:Generated_Source\PSoC4/cyfitter_cfg.c **** #ifndef CYFAR
  66:Generated_Source\PSoC4/cyfitter_cfg.c ****     #define CYFAR
  67:Generated_Source\PSoC4/cyfitter_cfg.c **** #endif
  68:Generated_Source\PSoC4/cyfitter_cfg.c **** #ifndef CYXDATA
  69:Generated_Source\PSoC4/cyfitter_cfg.c ****     #define CYXDATA
  70:Generated_Source\PSoC4/cyfitter_cfg.c **** #endif
  71:Generated_Source\PSoC4/cyfitter_cfg.c **** 
  72:Generated_Source\PSoC4/cyfitter_cfg.c **** 
  73:Generated_Source\PSoC4/cyfitter_cfg.c **** CY_CFG_UNUSED
  74:Generated_Source\PSoC4/cyfitter_cfg.c **** static void CYMEMZERO(void *s, size_t n);
  75:Generated_Source\PSoC4/cyfitter_cfg.c **** CY_CFG_UNUSED
  76:Generated_Source\PSoC4/cyfitter_cfg.c **** static void CYMEMZERO(void *s, size_t n)
  77:Generated_Source\PSoC4/cyfitter_cfg.c **** {
  78:Generated_Source\PSoC4/cyfitter_cfg.c **** 	(void)memset(s, 0, n);
  79:Generated_Source\PSoC4/cyfitter_cfg.c **** }
  80:Generated_Source\PSoC4/cyfitter_cfg.c **** CY_CFG_UNUSED
  81:Generated_Source\PSoC4/cyfitter_cfg.c **** static void CYCONFIGCPY(void *dest, const void *src, size_t n);
  82:Generated_Source\PSoC4/cyfitter_cfg.c **** CY_CFG_UNUSED
  83:Generated_Source\PSoC4/cyfitter_cfg.c **** static void CYCONFIGCPY(void *dest, const void *src, size_t n)
  84:Generated_Source\PSoC4/cyfitter_cfg.c **** {
  85:Generated_Source\PSoC4/cyfitter_cfg.c **** 	(void)memcpy(dest, src, n);
  86:Generated_Source\PSoC4/cyfitter_cfg.c **** }
  87:Generated_Source\PSoC4/cyfitter_cfg.c **** CY_CFG_UNUSED
  88:Generated_Source\PSoC4/cyfitter_cfg.c **** static void CYCONFIGCPYCODE(void *dest, const void *src, size_t n);
ARM GAS  C:\Users\mewin\AppData\Local\Temp\ccYfImcN.s 			page 3


  89:Generated_Source\PSoC4/cyfitter_cfg.c **** CY_CFG_UNUSED
  90:Generated_Source\PSoC4/cyfitter_cfg.c **** static void CYCONFIGCPYCODE(void *dest, const void *src, size_t n)
  91:Generated_Source\PSoC4/cyfitter_cfg.c **** {
  92:Generated_Source\PSoC4/cyfitter_cfg.c **** 	(void)memcpy(dest, src, n);
  93:Generated_Source\PSoC4/cyfitter_cfg.c **** }
  94:Generated_Source\PSoC4/cyfitter_cfg.c **** 
  95:Generated_Source\PSoC4/cyfitter_cfg.c **** 
  96:Generated_Source\PSoC4/cyfitter_cfg.c **** 
  97:Generated_Source\PSoC4/cyfitter_cfg.c **** 
  98:Generated_Source\PSoC4/cyfitter_cfg.c **** /* Clock startup error codes                                                   */
  99:Generated_Source\PSoC4/cyfitter_cfg.c **** #define CYCLOCKSTART_NO_ERROR    0u
 100:Generated_Source\PSoC4/cyfitter_cfg.c **** #define CYCLOCKSTART_XTAL_ERROR  1u
 101:Generated_Source\PSoC4/cyfitter_cfg.c **** #define CYCLOCKSTART_32KHZ_ERROR 2u
 102:Generated_Source\PSoC4/cyfitter_cfg.c **** #define CYCLOCKSTART_PLL_ERROR   3u
 103:Generated_Source\PSoC4/cyfitter_cfg.c **** #define CYCLOCKSTART_FLL_ERROR   4u
 104:Generated_Source\PSoC4/cyfitter_cfg.c **** #define CYCLOCKSTART_WCO_ERROR   5u
 105:Generated_Source\PSoC4/cyfitter_cfg.c **** 
 106:Generated_Source\PSoC4/cyfitter_cfg.c **** 
 107:Generated_Source\PSoC4/cyfitter_cfg.c **** #ifdef CY_NEED_CYCLOCKSTARTUPERROR
 108:Generated_Source\PSoC4/cyfitter_cfg.c **** /*******************************************************************************
 109:Generated_Source\PSoC4/cyfitter_cfg.c **** * Function Name: CyClockStartupError
 110:Generated_Source\PSoC4/cyfitter_cfg.c **** ********************************************************************************
 111:Generated_Source\PSoC4/cyfitter_cfg.c **** * Summary:
 112:Generated_Source\PSoC4/cyfitter_cfg.c **** *  If an error is encountered during clock configuration (crystal startup error,
 113:Generated_Source\PSoC4/cyfitter_cfg.c **** *  PLL lock error, etc.), the system will end up here.  Unless reimplemented by
 114:Generated_Source\PSoC4/cyfitter_cfg.c **** *  the customer, this function will stop in an infinite loop.
 115:Generated_Source\PSoC4/cyfitter_cfg.c **** *
 116:Generated_Source\PSoC4/cyfitter_cfg.c **** * Parameters:
 117:Generated_Source\PSoC4/cyfitter_cfg.c **** *   void
 118:Generated_Source\PSoC4/cyfitter_cfg.c **** *
 119:Generated_Source\PSoC4/cyfitter_cfg.c **** * Return:
 120:Generated_Source\PSoC4/cyfitter_cfg.c **** *   void
 121:Generated_Source\PSoC4/cyfitter_cfg.c **** *
 122:Generated_Source\PSoC4/cyfitter_cfg.c **** *******************************************************************************/
 123:Generated_Source\PSoC4/cyfitter_cfg.c **** CY_CFG_UNUSED
 124:Generated_Source\PSoC4/cyfitter_cfg.c **** static void CyClockStartupError(uint8 errorCode);
 125:Generated_Source\PSoC4/cyfitter_cfg.c **** CY_CFG_UNUSED
 126:Generated_Source\PSoC4/cyfitter_cfg.c **** static void CyClockStartupError(uint8 errorCode)
 127:Generated_Source\PSoC4/cyfitter_cfg.c **** {
 128:Generated_Source\PSoC4/cyfitter_cfg.c ****     /* To remove the compiler warning if errorCode not used.                */
 129:Generated_Source\PSoC4/cyfitter_cfg.c ****     errorCode = errorCode;
 130:Generated_Source\PSoC4/cyfitter_cfg.c **** 
 131:Generated_Source\PSoC4/cyfitter_cfg.c ****     /* If we have a clock startup error (bad MHz crystal, PLL lock, etc.),  */
 132:Generated_Source\PSoC4/cyfitter_cfg.c ****     /* we will end up here to allow the customer to implement something to  */
 133:Generated_Source\PSoC4/cyfitter_cfg.c ****     /* deal with the clock condition.                                       */
 134:Generated_Source\PSoC4/cyfitter_cfg.c **** 
 135:Generated_Source\PSoC4/cyfitter_cfg.c **** #ifdef CY_CFG_CLOCK_STARTUP_ERROR_CALLBACK
 136:Generated_Source\PSoC4/cyfitter_cfg.c ****     CY_CFG_Clock_Startup_ErrorCallback();
 137:Generated_Source\PSoC4/cyfitter_cfg.c **** #else
 138:Generated_Source\PSoC4/cyfitter_cfg.c ****     /*  If not using CY_CFG_CLOCK_STARTUP_ERROR_CALLBACK, place your clock startup code here. */
 139:Generated_Source\PSoC4/cyfitter_cfg.c ****     /* `#START CyClockStartupError` */
 140:Generated_Source\PSoC4/cyfitter_cfg.c **** 
 141:Generated_Source\PSoC4/cyfitter_cfg.c **** 
 142:Generated_Source\PSoC4/cyfitter_cfg.c **** 
 143:Generated_Source\PSoC4/cyfitter_cfg.c ****     /* `#END` */
 144:Generated_Source\PSoC4/cyfitter_cfg.c **** 
 145:Generated_Source\PSoC4/cyfitter_cfg.c ****     while(1) {}
ARM GAS  C:\Users\mewin\AppData\Local\Temp\ccYfImcN.s 			page 4


 146:Generated_Source\PSoC4/cyfitter_cfg.c **** #endif /* CY_CFG_CLOCK_STARTUP_ERROR_CALLBACK */
 147:Generated_Source\PSoC4/cyfitter_cfg.c **** }
 148:Generated_Source\PSoC4/cyfitter_cfg.c **** #endif
 149:Generated_Source\PSoC4/cyfitter_cfg.c **** 
 150:Generated_Source\PSoC4/cyfitter_cfg.c **** #define CY_CFG_BASE_ADDR_COUNT 14u
 151:Generated_Source\PSoC4/cyfitter_cfg.c **** CYPACKED typedef struct
 152:Generated_Source\PSoC4/cyfitter_cfg.c **** {
 153:Generated_Source\PSoC4/cyfitter_cfg.c **** 	uint8 offset;
 154:Generated_Source\PSoC4/cyfitter_cfg.c **** 	uint8 value;
 155:Generated_Source\PSoC4/cyfitter_cfg.c **** } CYPACKED_ATTR cy_cfg_addrvalue_t;
 156:Generated_Source\PSoC4/cyfitter_cfg.c **** 
 157:Generated_Source\PSoC4/cyfitter_cfg.c **** 
 158:Generated_Source\PSoC4/cyfitter_cfg.c **** 
 159:Generated_Source\PSoC4/cyfitter_cfg.c **** /*******************************************************************************
 160:Generated_Source\PSoC4/cyfitter_cfg.c **** * Function Name: cfg_write_bytes32
 161:Generated_Source\PSoC4/cyfitter_cfg.c **** ********************************************************************************
 162:Generated_Source\PSoC4/cyfitter_cfg.c **** * Summary:
 163:Generated_Source\PSoC4/cyfitter_cfg.c **** *  This function is used for setting up the chip configuration areas that
 164:Generated_Source\PSoC4/cyfitter_cfg.c **** *  contain relatively sparse data.
 165:Generated_Source\PSoC4/cyfitter_cfg.c **** *
 166:Generated_Source\PSoC4/cyfitter_cfg.c **** * Parameters:
 167:Generated_Source\PSoC4/cyfitter_cfg.c **** *   void
 168:Generated_Source\PSoC4/cyfitter_cfg.c **** *
 169:Generated_Source\PSoC4/cyfitter_cfg.c **** * Return:
 170:Generated_Source\PSoC4/cyfitter_cfg.c **** *   void
 171:Generated_Source\PSoC4/cyfitter_cfg.c **** *
 172:Generated_Source\PSoC4/cyfitter_cfg.c **** *******************************************************************************/
 173:Generated_Source\PSoC4/cyfitter_cfg.c **** static void cfg_write_bytes32(const uint32 addr_table[], const cy_cfg_addrvalue_t data_table[]);
 174:Generated_Source\PSoC4/cyfitter_cfg.c **** static void cfg_write_bytes32(const uint32 addr_table[], const cy_cfg_addrvalue_t data_table[])
 175:Generated_Source\PSoC4/cyfitter_cfg.c **** {
  27              		.loc 1 175 0
  28              		.cfi_startproc
  29              		@ args = 0, pretend = 0, frame = 0
  30              		@ frame_needed = 0, uses_anonymous_args = 0
  31              	.LVL0:
  32 0000 F0B5     		push	{r4, r5, r6, r7, lr}
  33              		.cfi_def_cfa_offset 20
  34              		.cfi_offset 4, -20
  35              		.cfi_offset 5, -16
  36              		.cfi_offset 6, -12
  37              		.cfi_offset 7, -8
  38              		.cfi_offset 14, -4
  39              	.LVL1:
 176:Generated_Source\PSoC4/cyfitter_cfg.c **** 	/* For 32-bit little-endian architectures */
 177:Generated_Source\PSoC4/cyfitter_cfg.c **** 	uint32 i, j = 0u;
  40              		.loc 1 177 0
  41 0002 0025     		movs	r5, #0
 178:Generated_Source\PSoC4/cyfitter_cfg.c **** 	for (i = 0u; i < CY_CFG_BASE_ADDR_COUNT; i++)
  42              		.loc 1 178 0
  43 0004 0027     		movs	r7, #0
  44 0006 11E0     		b	.L2
  45              	.LVL2:
  46              	.L5:
  47              	.LBB2:
 179:Generated_Source\PSoC4/cyfitter_cfg.c **** 	{
 180:Generated_Source\PSoC4/cyfitter_cfg.c **** 		uint32 baseAddr = addr_table[i];
  48              		.loc 1 180 0
ARM GAS  C:\Users\mewin\AppData\Local\Temp\ccYfImcN.s 			page 5


  49 0008 BB00     		lsls	r3, r7, #2
  50 000a C658     		ldr	r6, [r0, r3]
  51              	.LVL3:
 181:Generated_Source\PSoC4/cyfitter_cfg.c **** 		uint8 count = (uint8)baseAddr;
  52              		.loc 1 181 0
  53 000c F3B2     		uxtb	r3, r6
  54              	.LVL4:
 182:Generated_Source\PSoC4/cyfitter_cfg.c **** 		baseAddr &= 0xFFFFFF00u;
  55              		.loc 1 182 0
  56 000e FF22     		movs	r2, #255
  57 0010 9643     		bics	r6, r2
  58              	.LVL5:
 183:Generated_Source\PSoC4/cyfitter_cfg.c **** 		while (count != 0u)
  59              		.loc 1 183 0
  60 0012 08E0     		b	.L3
  61              	.L4:
 184:Generated_Source\PSoC4/cyfitter_cfg.c **** 		{
 185:Generated_Source\PSoC4/cyfitter_cfg.c **** 			CY_SET_REG8((void *)(baseAddr + data_table[j].offset), data_table[j].value);
  62              		.loc 1 185 0
  63 0014 6A00     		lsls	r2, r5, #1
  64 0016 8A18     		adds	r2, r1, r2
  65 0018 1478     		ldrb	r4, [r2]
  66 001a A419     		adds	r4, r4, r6
  67 001c 5278     		ldrb	r2, [r2, #1]
  68 001e 2270     		strb	r2, [r4]
 186:Generated_Source\PSoC4/cyfitter_cfg.c **** 			j++;
  69              		.loc 1 186 0
  70 0020 0135     		adds	r5, r5, #1
  71              	.LVL6:
 187:Generated_Source\PSoC4/cyfitter_cfg.c **** 			count--;
  72              		.loc 1 187 0
  73 0022 013B     		subs	r3, r3, #1
  74              	.LVL7:
  75 0024 DBB2     		uxtb	r3, r3
  76              	.LVL8:
  77              	.L3:
 183:Generated_Source\PSoC4/cyfitter_cfg.c **** 		{
  78              		.loc 1 183 0
  79 0026 002B     		cmp	r3, #0
  80 0028 F4D1     		bne	.L4
  81              	.LBE2:
 178:Generated_Source\PSoC4/cyfitter_cfg.c **** 	{
  82              		.loc 1 178 0 discriminator 2
  83 002a 0137     		adds	r7, r7, #1
  84              	.LVL9:
  85              	.L2:
 178:Generated_Source\PSoC4/cyfitter_cfg.c **** 	{
  86              		.loc 1 178 0 is_stmt 0 discriminator 1
  87 002c 0D2F     		cmp	r7, #13
  88 002e EBD9     		bls	.L5
 188:Generated_Source\PSoC4/cyfitter_cfg.c **** 		}
 189:Generated_Source\PSoC4/cyfitter_cfg.c **** 	}
 190:Generated_Source\PSoC4/cyfitter_cfg.c **** }
  89              		.loc 1 190 0 is_stmt 1
  90              		@ sp needed
  91              	.LVL10:
  92              	.LVL11:
ARM GAS  C:\Users\mewin\AppData\Local\Temp\ccYfImcN.s 			page 6


  93 0030 F0BD     		pop	{r4, r5, r6, r7, pc}
  94              		.cfi_endproc
  95              	.LFE4:
  96              		.size	cfg_write_bytes32, .-cfg_write_bytes32
  97 0032 C046     		.section	.text.CYMEMZERO,"ax",%progbits
  98              		.align	2
  99              		.code	16
 100              		.thumb_func
 101              		.type	CYMEMZERO, %function
 102              	CYMEMZERO:
 103              	.LFB1:
  77:Generated_Source\PSoC4/cyfitter_cfg.c **** 	(void)memset(s, 0, n);
 104              		.loc 1 77 0
 105              		.cfi_startproc
 106              		@ args = 0, pretend = 0, frame = 0
 107              		@ frame_needed = 0, uses_anonymous_args = 0
 108              	.LVL12:
 109 0000 10B5     		push	{r4, lr}
 110              		.cfi_def_cfa_offset 8
 111              		.cfi_offset 4, -8
 112              		.cfi_offset 14, -4
 113 0002 0A00     		movs	r2, r1
  78:Generated_Source\PSoC4/cyfitter_cfg.c **** }
 114              		.loc 1 78 0
 115 0004 0021     		movs	r1, #0
 116              	.LVL13:
 117 0006 FFF7FEFF 		bl	memset
 118              	.LVL14:
  79:Generated_Source\PSoC4/cyfitter_cfg.c **** CY_CFG_UNUSED
 119              		.loc 1 79 0
 120              		@ sp needed
 121 000a 10BD     		pop	{r4, pc}
 122              		.cfi_endproc
 123              	.LFE1:
 124              		.size	CYMEMZERO, .-CYMEMZERO
 125              		.section	.psocinit,"ax",%progbits
 126              		.align	2
 127              		.code	16
 128              		.thumb_func
 129              		.type	ClockSetup, %function
 130              	ClockSetup:
 131              	.LFB5:
 191:Generated_Source\PSoC4/cyfitter_cfg.c **** 
 192:Generated_Source\PSoC4/cyfitter_cfg.c **** 
 193:Generated_Source\PSoC4/cyfitter_cfg.c **** /*******************************************************************************
 194:Generated_Source\PSoC4/cyfitter_cfg.c **** * Function Name: ClockSetup
 195:Generated_Source\PSoC4/cyfitter_cfg.c **** ********************************************************************************
 196:Generated_Source\PSoC4/cyfitter_cfg.c **** *
 197:Generated_Source\PSoC4/cyfitter_cfg.c **** * Summary:
 198:Generated_Source\PSoC4/cyfitter_cfg.c **** *   Performs the initialization of all of the clocks in the device based on the
 199:Generated_Source\PSoC4/cyfitter_cfg.c **** *   settings in the Clock tab of the DWR.  This includes enabling the requested
 200:Generated_Source\PSoC4/cyfitter_cfg.c **** *   clocks and setting the necessary dividers to produce the desired frequency. 
 201:Generated_Source\PSoC4/cyfitter_cfg.c **** *
 202:Generated_Source\PSoC4/cyfitter_cfg.c **** * Parameters:
 203:Generated_Source\PSoC4/cyfitter_cfg.c **** *   void
 204:Generated_Source\PSoC4/cyfitter_cfg.c **** *
 205:Generated_Source\PSoC4/cyfitter_cfg.c **** * Return:
ARM GAS  C:\Users\mewin\AppData\Local\Temp\ccYfImcN.s 			page 7


 206:Generated_Source\PSoC4/cyfitter_cfg.c **** *   void
 207:Generated_Source\PSoC4/cyfitter_cfg.c **** *
 208:Generated_Source\PSoC4/cyfitter_cfg.c **** *******************************************************************************/
 209:Generated_Source\PSoC4/cyfitter_cfg.c **** static void ClockSetup(void);
 210:Generated_Source\PSoC4/cyfitter_cfg.c **** CY_CFG_SECTION
 211:Generated_Source\PSoC4/cyfitter_cfg.c **** static void ClockSetup(void)
 212:Generated_Source\PSoC4/cyfitter_cfg.c **** {
 132              		.loc 1 212 0
 133              		.cfi_startproc
 134              		@ args = 0, pretend = 0, frame = 0
 135              		@ frame_needed = 0, uses_anonymous_args = 0
 136 0000 10B5     		push	{r4, lr}
 137              		.cfi_def_cfa_offset 8
 138              		.cfi_offset 4, -8
 139              		.cfi_offset 14, -4
 213:Generated_Source\PSoC4/cyfitter_cfg.c **** 
 214:Generated_Source\PSoC4/cyfitter_cfg.c **** 	/* Set Flash Cycles based on max possible frequency in case a glitch occurs during ClockSetup(). *
 215:Generated_Source\PSoC4/cyfitter_cfg.c **** 	CY_SET_REG32((void CYXDATA *)(CYREG_CPUSS_FLASH_CTL), (0x0012u));
 140              		.loc 1 215 0
 141 0002 1222     		movs	r2, #18
 142 0004 264B     		ldr	r3, .L8
 143 0006 1A60     		str	r2, [r3]
 216:Generated_Source\PSoC4/cyfitter_cfg.c **** 	/* Setup and trim IMO based on desired frequency. */
 217:Generated_Source\PSoC4/cyfitter_cfg.c **** 	CySysClkWriteImoFreq(48u);
 144              		.loc 1 217 0
 145 0008 3020     		movs	r0, #48
 146 000a FFF7FEFF 		bl	CySysClkWriteImoFreq
 147              	.LVL15:
 218:Generated_Source\PSoC4/cyfitter_cfg.c **** 	/* CYDEV_CLK_ILO_CONFIG Starting address: CYDEV_CLK_ILO_CONFIG */
 219:Generated_Source\PSoC4/cyfitter_cfg.c **** 	CY_SET_REG32((void *)(CYREG_CLK_ILO_CONFIG), 0x80000006u);
 148              		.loc 1 219 0
 149 000e 254A     		ldr	r2, .L8+4
 150 0010 254B     		ldr	r3, .L8+8
 151 0012 1A60     		str	r2, [r3]
 220:Generated_Source\PSoC4/cyfitter_cfg.c **** 
 221:Generated_Source\PSoC4/cyfitter_cfg.c **** 
 222:Generated_Source\PSoC4/cyfitter_cfg.c **** 	/* Setup phase aligned clocks */
 223:Generated_Source\PSoC4/cyfitter_cfg.c **** 	CY_SET_REG32((void *)CYREG_PERI_DIV_16_CTL0, 0x00000000u);
 152              		.loc 1 223 0
 153 0014 0024     		movs	r4, #0
 154 0016 254B     		ldr	r3, .L8+12
 155 0018 1C60     		str	r4, [r3]
 224:Generated_Source\PSoC4/cyfitter_cfg.c **** 	CY_SET_REG32((void *)CYREG_PERI_DIV_CMD, 0x8000FF40u);
 156              		.loc 1 224 0
 157 001a 254B     		ldr	r3, .L8+16
 158 001c 254A     		ldr	r2, .L8+20
 159 001e 1A60     		str	r2, [r3]
 225:Generated_Source\PSoC4/cyfitter_cfg.c **** 	CY_SET_REG32((void *)CYREG_PERI_DIV_24_5_CTL, 0x061A7F00u);
 160              		.loc 1 225 0
 161 0020 2549     		ldr	r1, .L8+24
 162 0022 264A     		ldr	r2, .L8+28
 163 0024 1160     		str	r1, [r2]
 226:Generated_Source\PSoC4/cyfitter_cfg.c **** 	CY_SET_REG32((void *)CYREG_PERI_DIV_CMD, 0x8000FFC0u);
 164              		.loc 1 226 0
 165 0026 264A     		ldr	r2, .L8+32
 166 0028 1A60     		str	r2, [r3]
 227:Generated_Source\PSoC4/cyfitter_cfg.c **** 	CY_SET_REG32((void *)CYREG_PERI_DIV_16_CTL4, 0x009C3F00u);
ARM GAS  C:\Users\mewin\AppData\Local\Temp\ccYfImcN.s 			page 8


 167              		.loc 1 227 0
 168 002a 2649     		ldr	r1, .L8+36
 169 002c 264A     		ldr	r2, .L8+40
 170 002e 1160     		str	r1, [r2]
 228:Generated_Source\PSoC4/cyfitter_cfg.c **** 	CY_SET_REG32((void *)CYREG_PERI_DIV_CMD, 0x8000FF44u);
 171              		.loc 1 228 0
 172 0030 264A     		ldr	r2, .L8+44
 173 0032 1A60     		str	r2, [r3]
 229:Generated_Source\PSoC4/cyfitter_cfg.c **** 	CY_SET_REG32((void *)CYREG_PERI_DIV_16_CTL1, 0x00000700u);
 174              		.loc 1 229 0
 175 0034 E021     		movs	r1, #224
 176 0036 C900     		lsls	r1, r1, #3
 177 0038 254A     		ldr	r2, .L8+48
 178 003a 1160     		str	r1, [r2]
 230:Generated_Source\PSoC4/cyfitter_cfg.c **** 	CY_SET_REG32((void *)CYREG_PERI_DIV_CMD, 0x8000FF41u);
 179              		.loc 1 230 0
 180 003c 254A     		ldr	r2, .L8+52
 181 003e 1A60     		str	r2, [r3]
 231:Generated_Source\PSoC4/cyfitter_cfg.c **** 	CY_SET_REG32((void *)CYREG_PERI_DIV_16_CTL2, 0x00001800u);
 182              		.loc 1 231 0
 183 0040 C021     		movs	r1, #192
 184 0042 4901     		lsls	r1, r1, #5
 185 0044 244A     		ldr	r2, .L8+56
 186 0046 1160     		str	r1, [r2]
 232:Generated_Source\PSoC4/cyfitter_cfg.c **** 	CY_SET_REG32((void *)CYREG_PERI_DIV_CMD, 0x8000FF42u);
 187              		.loc 1 232 0
 188 0048 244A     		ldr	r2, .L8+60
 189 004a 1A60     		str	r2, [r3]
 233:Generated_Source\PSoC4/cyfitter_cfg.c **** 	CY_SET_REG32((void *)CYREG_PERI_DIV_16_CTL3, 0x00001C00u);
 190              		.loc 1 233 0
 191 004c E021     		movs	r1, #224
 192 004e 4901     		lsls	r1, r1, #5
 193 0050 234A     		ldr	r2, .L8+64
 194 0052 1160     		str	r1, [r2]
 234:Generated_Source\PSoC4/cyfitter_cfg.c **** 	CY_SET_REG32((void *)CYREG_PERI_DIV_CMD, 0x8000FF43u);
 195              		.loc 1 234 0
 196 0054 234A     		ldr	r2, .L8+68
 197 0056 1A60     		str	r2, [r3]
 235:Generated_Source\PSoC4/cyfitter_cfg.c **** 
 236:Generated_Source\PSoC4/cyfitter_cfg.c **** 	/* CYDEV_CLK_IMO_CONFIG Starting address: CYDEV_CLK_IMO_CONFIG */
 237:Generated_Source\PSoC4/cyfitter_cfg.c **** 	CY_SET_REG32((void *)(CYREG_CLK_IMO_CONFIG), 0x82000000u);
 198              		.loc 1 237 0
 199 0058 8222     		movs	r2, #130
 200 005a 1206     		lsls	r2, r2, #24
 201 005c 224B     		ldr	r3, .L8+72
 202 005e 1A60     		str	r2, [r3]
 238:Generated_Source\PSoC4/cyfitter_cfg.c **** 
 239:Generated_Source\PSoC4/cyfitter_cfg.c **** 	/* CYDEV_CLK_SELECT Starting address: CYDEV_CLK_SELECT */
 240:Generated_Source\PSoC4/cyfitter_cfg.c **** 	CY_SET_REG32((void *)(CYREG_CLK_SELECT), 0x00060249u);
 203              		.loc 1 240 0
 204 0060 224A     		ldr	r2, .L8+76
 205 0062 234B     		ldr	r3, .L8+80
 206 0064 1A60     		str	r2, [r3]
 241:Generated_Source\PSoC4/cyfitter_cfg.c **** 
 242:Generated_Source\PSoC4/cyfitter_cfg.c **** 	/* CYDEV_PERI_PCLK_CTL19 Starting address: CYDEV_PERI_PCLK_CTL19 */
 243:Generated_Source\PSoC4/cyfitter_cfg.c **** 	CY_SET_REG32((void *)(CYREG_PERI_PCLK_CTL19), 0x000000C0u);
 207              		.loc 1 243 0
ARM GAS  C:\Users\mewin\AppData\Local\Temp\ccYfImcN.s 			page 9


 208 0066 C023     		movs	r3, #192
 209 0068 224A     		ldr	r2, .L8+84
 210 006a 1360     		str	r3, [r2]
 244:Generated_Source\PSoC4/cyfitter_cfg.c **** 
 245:Generated_Source\PSoC4/cyfitter_cfg.c **** 	/* CYDEV_PERI_PCLK_CTL13 Starting address: CYDEV_PERI_PCLK_CTL13 */
 246:Generated_Source\PSoC4/cyfitter_cfg.c **** 	CY_SET_REG32((void *)(CYREG_PERI_PCLK_CTL13), 0x000000C0u);
 211              		.loc 1 246 0
 212 006c 224A     		ldr	r2, .L8+88
 213 006e 1360     		str	r3, [r2]
 247:Generated_Source\PSoC4/cyfitter_cfg.c **** 
 248:Generated_Source\PSoC4/cyfitter_cfg.c **** 	/* CYDEV_PERI_PCLK_CTL12 Starting address: CYDEV_PERI_PCLK_CTL12 */
 249:Generated_Source\PSoC4/cyfitter_cfg.c **** 	CY_SET_REG32((void *)(CYREG_PERI_PCLK_CTL12), 0x000000C0u);
 214              		.loc 1 249 0
 215 0070 224A     		ldr	r2, .L8+92
 216 0072 1360     		str	r3, [r2]
 250:Generated_Source\PSoC4/cyfitter_cfg.c **** 
 251:Generated_Source\PSoC4/cyfitter_cfg.c **** 	/* CYDEV_PERI_PCLK_CTL11 Starting address: CYDEV_PERI_PCLK_CTL11 */
 252:Generated_Source\PSoC4/cyfitter_cfg.c **** 	CY_SET_REG32((void *)(CYREG_PERI_PCLK_CTL11), 0x00000044u);
 217              		.loc 1 252 0
 218 0074 4422     		movs	r2, #68
 219 0076 224B     		ldr	r3, .L8+96
 220 0078 1A60     		str	r2, [r3]
 253:Generated_Source\PSoC4/cyfitter_cfg.c **** 
 254:Generated_Source\PSoC4/cyfitter_cfg.c **** 	/* CYDEV_PERI_PCLK_CTL10 Starting address: CYDEV_PERI_PCLK_CTL10 */
 255:Generated_Source\PSoC4/cyfitter_cfg.c **** 	CY_SET_REG32((void *)(CYREG_PERI_PCLK_CTL10), 0x00000041u);
 221              		.loc 1 255 0
 222 007a 033A     		subs	r2, r2, #3
 223 007c 214B     		ldr	r3, .L8+100
 224 007e 1A60     		str	r2, [r3]
 256:Generated_Source\PSoC4/cyfitter_cfg.c **** 
 257:Generated_Source\PSoC4/cyfitter_cfg.c **** 	/* CYDEV_PERI_PCLK_CTL4 Starting address: CYDEV_PERI_PCLK_CTL4 */
 258:Generated_Source\PSoC4/cyfitter_cfg.c **** 	CY_SET_REG32((void *)(CYREG_PERI_PCLK_CTL4), 0x00000042u);
 225              		.loc 1 258 0
 226 0080 0132     		adds	r2, r2, #1
 227 0082 214B     		ldr	r3, .L8+104
 228 0084 1A60     		str	r2, [r3]
 259:Generated_Source\PSoC4/cyfitter_cfg.c **** 
 260:Generated_Source\PSoC4/cyfitter_cfg.c **** 	/* CYDEV_PERI_PCLK_CTL3 Starting address: CYDEV_PERI_PCLK_CTL3 */
 261:Generated_Source\PSoC4/cyfitter_cfg.c **** 	CY_SET_REG32((void *)(CYREG_PERI_PCLK_CTL3), 0x00000043u);
 229              		.loc 1 261 0
 230 0086 0132     		adds	r2, r2, #1
 231 0088 204B     		ldr	r3, .L8+108
 232 008a 1A60     		str	r2, [r3]
 262:Generated_Source\PSoC4/cyfitter_cfg.c **** 
 263:Generated_Source\PSoC4/cyfitter_cfg.c **** 	(void)CyIntSetVector(8u, &CySysWdtIsr);
 233              		.loc 1 263 0
 234 008c 2049     		ldr	r1, .L8+112
 235 008e 0820     		movs	r0, #8
 236 0090 FFF7FEFF 		bl	CyIntSetVector
 237              	.LVL16:
 264:Generated_Source\PSoC4/cyfitter_cfg.c **** 	CyIntEnable(8u);
 238              		.loc 1 264 0
 239 0094 0820     		movs	r0, #8
 240 0096 FFF7FEFF 		bl	CyIntEnable
 241              	.LVL17:
 265:Generated_Source\PSoC4/cyfitter_cfg.c **** 	CY_SET_REG32((void *)(CYREG_WDT_CONFIG), 0x00000000u);
 242              		.loc 1 265 0
ARM GAS  C:\Users\mewin\AppData\Local\Temp\ccYfImcN.s 			page 10


 243 009a 1E4B     		ldr	r3, .L8+116
 244 009c 1C60     		str	r4, [r3]
 266:Generated_Source\PSoC4/cyfitter_cfg.c **** }
 245              		.loc 1 266 0
 246              		@ sp needed
 247 009e 10BD     		pop	{r4, pc}
 248              	.L9:
 249              		.align	2
 250              	.L8:
 251 00a0 30001040 		.word	1074790448
 252 00a4 06000080 		.word	-2147483642
 253 00a8 04010B40 		.word	1074462980
 254 00ac 00030140 		.word	1073808128
 255 00b0 00000140 		.word	1073807360
 256 00b4 40FF0080 		.word	-2147418304
 257 00b8 007F1A06 		.word	102399744
 258 00bc 00050140 		.word	1073808640
 259 00c0 C0FF0080 		.word	-2147418176
 260 00c4 003F9C00 		.word	10239744
 261 00c8 10030140 		.word	1073808144
 262 00cc 44FF0080 		.word	-2147418300
 263 00d0 04030140 		.word	1073808132
 264 00d4 41FF0080 		.word	-2147418303
 265 00d8 08030140 		.word	1073808136
 266 00dc 42FF0080 		.word	-2147418302
 267 00e0 0C030140 		.word	1073808140
 268 00e4 43FF0080 		.word	-2147418301
 269 00e8 08010B40 		.word	1074462984
 270 00ec 49020600 		.word	393801
 271 00f0 00010B40 		.word	1074462976
 272 00f4 4C010140 		.word	1073807692
 273 00f8 34010140 		.word	1073807668
 274 00fc 30010140 		.word	1073807664
 275 0100 2C010140 		.word	1073807660
 276 0104 28010140 		.word	1073807656
 277 0108 10010140 		.word	1073807632
 278 010c 0C010140 		.word	1073807628
 279 0110 00000000 		.word	CySysWdtIsr
 280 0114 0C020B40 		.word	1074463244
 281              		.cfi_endproc
 282              	.LFE5:
 283              		.size	ClockSetup, .-ClockSetup
 284              		.section	.text.SetAnalogRoutingPumps,"ax",%progbits
 285              		.align	2
 286              		.global	SetAnalogRoutingPumps
 287              		.code	16
 288              		.thumb_func
 289              		.type	SetAnalogRoutingPumps, %function
 290              	SetAnalogRoutingPumps:
 291              	.LFB7:
 267:Generated_Source\PSoC4/cyfitter_cfg.c **** 
 268:Generated_Source\PSoC4/cyfitter_cfg.c **** 
 269:Generated_Source\PSoC4/cyfitter_cfg.c **** /* Analog API Functions */
 270:Generated_Source\PSoC4/cyfitter_cfg.c **** 
 271:Generated_Source\PSoC4/cyfitter_cfg.c **** 
 272:Generated_Source\PSoC4/cyfitter_cfg.c **** /*******************************************************************************
 273:Generated_Source\PSoC4/cyfitter_cfg.c **** * Function Name: AnalogSetDefault
ARM GAS  C:\Users\mewin\AppData\Local\Temp\ccYfImcN.s 			page 11


 274:Generated_Source\PSoC4/cyfitter_cfg.c **** ********************************************************************************
 275:Generated_Source\PSoC4/cyfitter_cfg.c **** *
 276:Generated_Source\PSoC4/cyfitter_cfg.c **** * Summary:
 277:Generated_Source\PSoC4/cyfitter_cfg.c **** *  Sets up the analog portions of the chip to default values based on chip
 278:Generated_Source\PSoC4/cyfitter_cfg.c **** *  configuration options from the project.
 279:Generated_Source\PSoC4/cyfitter_cfg.c **** *
 280:Generated_Source\PSoC4/cyfitter_cfg.c **** * Parameters:
 281:Generated_Source\PSoC4/cyfitter_cfg.c **** *  void
 282:Generated_Source\PSoC4/cyfitter_cfg.c **** *
 283:Generated_Source\PSoC4/cyfitter_cfg.c **** * Return:
 284:Generated_Source\PSoC4/cyfitter_cfg.c **** *  void
 285:Generated_Source\PSoC4/cyfitter_cfg.c **** *
 286:Generated_Source\PSoC4/cyfitter_cfg.c **** *******************************************************************************/
 287:Generated_Source\PSoC4/cyfitter_cfg.c **** static void AnalogSetDefault(void);
 288:Generated_Source\PSoC4/cyfitter_cfg.c **** static void AnalogSetDefault(void)
 289:Generated_Source\PSoC4/cyfitter_cfg.c **** {
 290:Generated_Source\PSoC4/cyfitter_cfg.c **** 	CY_SET_XTND_REG32((void CYFAR *)CYREG_CTBM0_DFT_CTRL, 0x00000003u);
 291:Generated_Source\PSoC4/cyfitter_cfg.c **** 	CY_SET_XTND_REG32((void CYFAR *)CYREG_CTBM1_DFT_CTRL, 0x00000003u);
 292:Generated_Source\PSoC4/cyfitter_cfg.c **** 	CY_SET_XTND_REG32((void CYFAR *)CYREG_SAR_CTRL, 0x80000000u);
 293:Generated_Source\PSoC4/cyfitter_cfg.c **** 	CY_SET_XTND_REG32((void CYFAR *)CYREG_SAR_MUX_SWITCH0, 0x000000C0u);
 294:Generated_Source\PSoC4/cyfitter_cfg.c **** 	CY_SET_XTND_REG32((void CYFAR *)CYREG_SAR_MUX_SWITCH_HW_CTRL, 0x000000C0u);
 295:Generated_Source\PSoC4/cyfitter_cfg.c **** 	CY_SET_XTND_REG32((void CYFAR *)CYREG_PASS_DSAB_DSAB_CTRL, 0x00000000u);
 296:Generated_Source\PSoC4/cyfitter_cfg.c **** 	SetAnalogRoutingPumps(1);
 297:Generated_Source\PSoC4/cyfitter_cfg.c **** }
 298:Generated_Source\PSoC4/cyfitter_cfg.c **** 
 299:Generated_Source\PSoC4/cyfitter_cfg.c **** 
 300:Generated_Source\PSoC4/cyfitter_cfg.c **** /*******************************************************************************
 301:Generated_Source\PSoC4/cyfitter_cfg.c **** * Function Name: SetAnalogRoutingPumps
 302:Generated_Source\PSoC4/cyfitter_cfg.c **** ********************************************************************************
 303:Generated_Source\PSoC4/cyfitter_cfg.c **** *
 304:Generated_Source\PSoC4/cyfitter_cfg.c **** * Summary:
 305:Generated_Source\PSoC4/cyfitter_cfg.c **** * Enables or disables the analog pumps feeding analog routing switches.
 306:Generated_Source\PSoC4/cyfitter_cfg.c **** * Intended to be called at startup, based on the Vdda system configuration;
 307:Generated_Source\PSoC4/cyfitter_cfg.c **** * may be called during operation when the user informs us that the Vdda voltage crossed the pump th
 308:Generated_Source\PSoC4/cyfitter_cfg.c **** *
 309:Generated_Source\PSoC4/cyfitter_cfg.c **** * Parameters:
 310:Generated_Source\PSoC4/cyfitter_cfg.c **** *  enabled - 1 to enable the pumps, 0 to disable the pumps
 311:Generated_Source\PSoC4/cyfitter_cfg.c **** *
 312:Generated_Source\PSoC4/cyfitter_cfg.c **** * Return:
 313:Generated_Source\PSoC4/cyfitter_cfg.c **** *  void
 314:Generated_Source\PSoC4/cyfitter_cfg.c **** *
 315:Generated_Source\PSoC4/cyfitter_cfg.c **** *******************************************************************************/
 316:Generated_Source\PSoC4/cyfitter_cfg.c **** void SetAnalogRoutingPumps(uint8 enabled)
 317:Generated_Source\PSoC4/cyfitter_cfg.c **** {
 292              		.loc 1 317 0
 293              		.cfi_startproc
 294              		@ args = 0, pretend = 0, frame = 0
 295              		@ frame_needed = 0, uses_anonymous_args = 0
 296              		@ link register save eliminated.
 297              	.LVL18:
 318:Generated_Source\PSoC4/cyfitter_cfg.c **** 	uint32 regValue = CY_GET_XTND_REG32((void *)(CYREG_SAR_PUMP_CTRL));
 298              		.loc 1 318 0
 299 0000 064B     		ldr	r3, .L13
 300 0002 1B68     		ldr	r3, [r3]
 301              	.LVL19:
 319:Generated_Source\PSoC4/cyfitter_cfg.c **** 	if (enabled != 0u)
 302              		.loc 1 319 0
ARM GAS  C:\Users\mewin\AppData\Local\Temp\ccYfImcN.s 			page 12


 303 0004 0028     		cmp	r0, #0
 304 0006 03D0     		beq	.L11
 320:Generated_Source\PSoC4/cyfitter_cfg.c **** 	{
 321:Generated_Source\PSoC4/cyfitter_cfg.c **** 		regValue |= 0x80000000u;
 305              		.loc 1 321 0
 306 0008 8022     		movs	r2, #128
 307 000a 1206     		lsls	r2, r2, #24
 308 000c 1343     		orrs	r3, r2
 309              	.LVL20:
 310 000e 01E0     		b	.L12
 311              	.L11:
 322:Generated_Source\PSoC4/cyfitter_cfg.c **** 	}
 323:Generated_Source\PSoC4/cyfitter_cfg.c **** 	else
 324:Generated_Source\PSoC4/cyfitter_cfg.c **** 	{
 325:Generated_Source\PSoC4/cyfitter_cfg.c **** 		regValue &= ~0x80000000u;
 312              		.loc 1 325 0
 313 0010 5B00     		lsls	r3, r3, #1
 314              	.LVL21:
 315 0012 5B08     		lsrs	r3, r3, #1
 316              	.LVL22:
 317              	.L12:
 326:Generated_Source\PSoC4/cyfitter_cfg.c **** 	}
 327:Generated_Source\PSoC4/cyfitter_cfg.c **** 	CY_SET_XTND_REG32((void *)(CYREG_SAR_PUMP_CTRL), regValue);
 318              		.loc 1 327 0
 319 0014 014A     		ldr	r2, .L13
 320 0016 1360     		str	r3, [r2]
 328:Generated_Source\PSoC4/cyfitter_cfg.c **** }
 321              		.loc 1 328 0
 322              		@ sp needed
 323 0018 7047     		bx	lr
 324              	.L14:
 325 001a C046     		.align	2
 326              	.L13:
 327 001c 80033A40 		.word	1077543808
 328              		.cfi_endproc
 329              	.LFE7:
 330              		.size	SetAnalogRoutingPumps, .-SetAnalogRoutingPumps
 331              		.section	.text.AnalogSetDefault,"ax",%progbits
 332              		.align	2
 333              		.code	16
 334              		.thumb_func
 335              		.type	AnalogSetDefault, %function
 336              	AnalogSetDefault:
 337              	.LFB6:
 289:Generated_Source\PSoC4/cyfitter_cfg.c **** 	CY_SET_XTND_REG32((void CYFAR *)CYREG_CTBM0_DFT_CTRL, 0x00000003u);
 338              		.loc 1 289 0
 339              		.cfi_startproc
 340              		@ args = 0, pretend = 0, frame = 0
 341              		@ frame_needed = 0, uses_anonymous_args = 0
 342 0000 10B5     		push	{r4, lr}
 343              		.cfi_def_cfa_offset 8
 344              		.cfi_offset 4, -8
 345              		.cfi_offset 14, -4
 290:Generated_Source\PSoC4/cyfitter_cfg.c **** 	CY_SET_XTND_REG32((void CYFAR *)CYREG_CTBM1_DFT_CTRL, 0x00000003u);
 346              		.loc 1 290 0
 347 0002 0323     		movs	r3, #3
 348 0004 094A     		ldr	r2, .L16
ARM GAS  C:\Users\mewin\AppData\Local\Temp\ccYfImcN.s 			page 13


 349 0006 1360     		str	r3, [r2]
 291:Generated_Source\PSoC4/cyfitter_cfg.c **** 	CY_SET_XTND_REG32((void CYFAR *)CYREG_SAR_CTRL, 0x80000000u);
 350              		.loc 1 291 0
 351 0008 094A     		ldr	r2, .L16+4
 352 000a 1360     		str	r3, [r2]
 292:Generated_Source\PSoC4/cyfitter_cfg.c **** 	CY_SET_XTND_REG32((void CYFAR *)CYREG_SAR_MUX_SWITCH0, 0x000000C0u);
 353              		.loc 1 292 0
 354 000c 8022     		movs	r2, #128
 355 000e 1206     		lsls	r2, r2, #24
 356 0010 084B     		ldr	r3, .L16+8
 357 0012 1A60     		str	r2, [r3]
 293:Generated_Source\PSoC4/cyfitter_cfg.c **** 	CY_SET_XTND_REG32((void CYFAR *)CYREG_SAR_MUX_SWITCH_HW_CTRL, 0x000000C0u);
 358              		.loc 1 293 0
 359 0014 C023     		movs	r3, #192
 360 0016 084A     		ldr	r2, .L16+12
 361 0018 1360     		str	r3, [r2]
 294:Generated_Source\PSoC4/cyfitter_cfg.c **** 	CY_SET_XTND_REG32((void CYFAR *)CYREG_PASS_DSAB_DSAB_CTRL, 0x00000000u);
 362              		.loc 1 294 0
 363 001a 084A     		ldr	r2, .L16+16
 364 001c 1360     		str	r3, [r2]
 295:Generated_Source\PSoC4/cyfitter_cfg.c **** 	SetAnalogRoutingPumps(1);
 365              		.loc 1 295 0
 366 001e 0022     		movs	r2, #0
 367 0020 074B     		ldr	r3, .L16+20
 368 0022 1A60     		str	r2, [r3]
 296:Generated_Source\PSoC4/cyfitter_cfg.c **** }
 369              		.loc 1 296 0
 370 0024 0120     		movs	r0, #1
 371 0026 FFF7FEFF 		bl	SetAnalogRoutingPumps
 372              	.LVL23:
 297:Generated_Source\PSoC4/cyfitter_cfg.c **** 
 373              		.loc 1 297 0
 374              		@ sp needed
 375 002a 10BD     		pop	{r4, pc}
 376              	.L17:
 377              		.align	2
 378              	.L16:
 379 002c 30003040 		.word	1076887600
 380 0030 30003140 		.word	1076953136
 381 0034 00003A40 		.word	1077542912
 382 0038 00033A40 		.word	1077543680
 383 003c 40033A40 		.word	1077543744
 384 0040 000E3F40 		.word	1077874176
 385              		.cfi_endproc
 386              	.LFE6:
 387              		.size	AnalogSetDefault, .-AnalogSetDefault
 388              		.section	.psocinit
 389              		.align	2
 390              		.global	cyfitter_cfg
 391              		.code	16
 392              		.thumb_func
 393              		.type	cyfitter_cfg, %function
 394              	cyfitter_cfg:
 395              	.LFB8:
 329:Generated_Source\PSoC4/cyfitter_cfg.c **** 
 330:Generated_Source\PSoC4/cyfitter_cfg.c **** 
 331:Generated_Source\PSoC4/cyfitter_cfg.c **** 
ARM GAS  C:\Users\mewin\AppData\Local\Temp\ccYfImcN.s 			page 14


 332:Generated_Source\PSoC4/cyfitter_cfg.c **** 
 333:Generated_Source\PSoC4/cyfitter_cfg.c **** /*******************************************************************************
 334:Generated_Source\PSoC4/cyfitter_cfg.c **** * Function Name: cyfitter_cfg
 335:Generated_Source\PSoC4/cyfitter_cfg.c **** ********************************************************************************
 336:Generated_Source\PSoC4/cyfitter_cfg.c **** * Summary:
 337:Generated_Source\PSoC4/cyfitter_cfg.c **** *  This function is called by the start-up code for the selected device. It
 338:Generated_Source\PSoC4/cyfitter_cfg.c **** *  performs all of the necessary device configuration based on the design
 339:Generated_Source\PSoC4/cyfitter_cfg.c **** *  settings.  This includes settings from the Design Wide Resources (DWR) such
 340:Generated_Source\PSoC4/cyfitter_cfg.c **** *  as Clocks and Pins as well as any component configuration that is necessary.
 341:Generated_Source\PSoC4/cyfitter_cfg.c **** *
 342:Generated_Source\PSoC4/cyfitter_cfg.c **** * Parameters:
 343:Generated_Source\PSoC4/cyfitter_cfg.c **** *   void
 344:Generated_Source\PSoC4/cyfitter_cfg.c **** *
 345:Generated_Source\PSoC4/cyfitter_cfg.c **** * Return:
 346:Generated_Source\PSoC4/cyfitter_cfg.c **** *   void
 347:Generated_Source\PSoC4/cyfitter_cfg.c **** *
 348:Generated_Source\PSoC4/cyfitter_cfg.c **** *******************************************************************************/
 349:Generated_Source\PSoC4/cyfitter_cfg.c **** CY_CFG_SECTION
 350:Generated_Source\PSoC4/cyfitter_cfg.c **** void cyfitter_cfg(void)
 351:Generated_Source\PSoC4/cyfitter_cfg.c **** {
 396              		.loc 1 351 0
 397              		.cfi_startproc
 398              		@ args = 0, pretend = 0, frame = 0
 399              		@ frame_needed = 0, uses_anonymous_args = 0
 400 0118 10B5     		push	{r4, lr}
 401              		.cfi_def_cfa_offset 8
 402              		.cfi_offset 4, -8
 403              		.cfi_offset 14, -4
 352:Generated_Source\PSoC4/cyfitter_cfg.c **** 	/* Disable interrupts by default. Let user enable if/when they want. */
 353:Generated_Source\PSoC4/cyfitter_cfg.c **** 	CyGlobalIntDisable;
 404              		.loc 1 353 0
 405              		.syntax divided
 406              	@ 353 "Generated_Source\PSoC4\cyfitter_cfg.c" 1
 407 011a 72B6     		CPSID   i
 408              	@ 0 "" 2
 354:Generated_Source\PSoC4/cyfitter_cfg.c **** 
 355:Generated_Source\PSoC4/cyfitter_cfg.c **** 	/* Enable the clock in the interrupt controller for the routed interrupts */
 356:Generated_Source\PSoC4/cyfitter_cfg.c **** 	CY_SET_REG8((void *)CYREG_UDB_UDB_INT_CLK_CTL, 0x01u);
 409              		.loc 1 356 0
 410              		.thumb
 411              		.syntax unified
 412 011c 0122     		movs	r2, #1
 413 011e 3E4B     		ldr	r3, .L21
 414 0120 1A70     		strb	r2, [r3]
 415              	.LVL24:
 416              	.LBB3:
 357:Generated_Source\PSoC4/cyfitter_cfg.c **** 	{
 358:Generated_Source\PSoC4/cyfitter_cfg.c **** 		static const uint32 CYCODE cy_cfg_addr_table[] = {
 359:Generated_Source\PSoC4/cyfitter_cfg.c **** 			0x400F0001u, /* Base address: 0x400F0000 Count: 1 */
 360:Generated_Source\PSoC4/cyfitter_cfg.c **** 			0x400F3301u, /* Base address: 0x400F3300 Count: 1 */
 361:Generated_Source\PSoC4/cyfitter_cfg.c **** 			0x400F3501u, /* Base address: 0x400F3500 Count: 1 */
 362:Generated_Source\PSoC4/cyfitter_cfg.c **** 			0x400F361Cu, /* Base address: 0x400F3600 Count: 28 */
 363:Generated_Source\PSoC4/cyfitter_cfg.c **** 			0x400F372Au, /* Base address: 0x400F3700 Count: 42 */
 364:Generated_Source\PSoC4/cyfitter_cfg.c **** 			0x400F4002u, /* Base address: 0x400F4000 Count: 2 */
 365:Generated_Source\PSoC4/cyfitter_cfg.c **** 			0x400F4107u, /* Base address: 0x400F4100 Count: 7 */
 366:Generated_Source\PSoC4/cyfitter_cfg.c **** 			0x400F4201u, /* Base address: 0x400F4200 Count: 1 */
 367:Generated_Source\PSoC4/cyfitter_cfg.c **** 			0x400F4303u, /* Base address: 0x400F4300 Count: 3 */
ARM GAS  C:\Users\mewin\AppData\Local\Temp\ccYfImcN.s 			page 15


 368:Generated_Source\PSoC4/cyfitter_cfg.c **** 			0x400F4403u, /* Base address: 0x400F4400 Count: 3 */
 369:Generated_Source\PSoC4/cyfitter_cfg.c **** 			0x400F450Fu, /* Base address: 0x400F4500 Count: 15 */
 370:Generated_Source\PSoC4/cyfitter_cfg.c **** 			0x400F4605u, /* Base address: 0x400F4600 Count: 5 */
 371:Generated_Source\PSoC4/cyfitter_cfg.c **** 			0x400F4711u, /* Base address: 0x400F4700 Count: 17 */
 372:Generated_Source\PSoC4/cyfitter_cfg.c **** 			0x400F6002u, /* Base address: 0x400F6000 Count: 2 */
 373:Generated_Source\PSoC4/cyfitter_cfg.c **** 		};
 374:Generated_Source\PSoC4/cyfitter_cfg.c **** 
 375:Generated_Source\PSoC4/cyfitter_cfg.c **** 		static const cy_cfg_addrvalue_t CYCODE cy_cfg_data_table[] = {
 376:Generated_Source\PSoC4/cyfitter_cfg.c **** 			{0x87u, 0x1Fu},
 377:Generated_Source\PSoC4/cyfitter_cfg.c **** 			{0xE4u, 0x12u},
 378:Generated_Source\PSoC4/cyfitter_cfg.c **** 			{0x8Fu, 0x10u},
 379:Generated_Source\PSoC4/cyfitter_cfg.c **** 			{0x00u, 0x02u},
 380:Generated_Source\PSoC4/cyfitter_cfg.c **** 			{0x10u, 0x04u},
 381:Generated_Source\PSoC4/cyfitter_cfg.c **** 			{0x14u, 0x01u},
 382:Generated_Source\PSoC4/cyfitter_cfg.c **** 			{0x30u, 0x02u},
 383:Generated_Source\PSoC4/cyfitter_cfg.c **** 			{0x34u, 0x04u},
 384:Generated_Source\PSoC4/cyfitter_cfg.c **** 			{0x36u, 0x01u},
 385:Generated_Source\PSoC4/cyfitter_cfg.c **** 			{0x3Eu, 0x51u},
 386:Generated_Source\PSoC4/cyfitter_cfg.c **** 			{0x58u, 0x04u},
 387:Generated_Source\PSoC4/cyfitter_cfg.c **** 			{0x5Bu, 0x04u},
 388:Generated_Source\PSoC4/cyfitter_cfg.c **** 			{0x5Fu, 0x01u},
 389:Generated_Source\PSoC4/cyfitter_cfg.c **** 			{0x84u, 0x01u},
 390:Generated_Source\PSoC4/cyfitter_cfg.c **** 			{0x8Cu, 0x04u},
 391:Generated_Source\PSoC4/cyfitter_cfg.c **** 			{0x8Du, 0x01u},
 392:Generated_Source\PSoC4/cyfitter_cfg.c **** 			{0x99u, 0x02u},
 393:Generated_Source\PSoC4/cyfitter_cfg.c **** 			{0x9Cu, 0x08u},
 394:Generated_Source\PSoC4/cyfitter_cfg.c **** 			{0xA0u, 0x02u},
 395:Generated_Source\PSoC4/cyfitter_cfg.c **** 			{0xB0u, 0x08u},
 396:Generated_Source\PSoC4/cyfitter_cfg.c **** 			{0xB2u, 0x04u},
 397:Generated_Source\PSoC4/cyfitter_cfg.c **** 			{0xB3u, 0x01u},
 398:Generated_Source\PSoC4/cyfitter_cfg.c **** 			{0xB4u, 0x02u},
 399:Generated_Source\PSoC4/cyfitter_cfg.c **** 			{0xB5u, 0x02u},
 400:Generated_Source\PSoC4/cyfitter_cfg.c **** 			{0xB6u, 0x01u},
 401:Generated_Source\PSoC4/cyfitter_cfg.c **** 			{0xBFu, 0x04u},
 402:Generated_Source\PSoC4/cyfitter_cfg.c **** 			{0xD6u, 0x04u},
 403:Generated_Source\PSoC4/cyfitter_cfg.c **** 			{0xD8u, 0x04u},
 404:Generated_Source\PSoC4/cyfitter_cfg.c **** 			{0xD9u, 0x04u},
 405:Generated_Source\PSoC4/cyfitter_cfg.c **** 			{0xDBu, 0x04u},
 406:Generated_Source\PSoC4/cyfitter_cfg.c **** 			{0xDFu, 0x01u},
 407:Generated_Source\PSoC4/cyfitter_cfg.c **** 			{0x00u, 0x08u},
 408:Generated_Source\PSoC4/cyfitter_cfg.c **** 			{0x03u, 0x01u},
 409:Generated_Source\PSoC4/cyfitter_cfg.c **** 			{0x07u, 0x40u},
 410:Generated_Source\PSoC4/cyfitter_cfg.c **** 			{0x08u, 0x80u},
 411:Generated_Source\PSoC4/cyfitter_cfg.c **** 			{0x0Cu, 0x02u},
 412:Generated_Source\PSoC4/cyfitter_cfg.c **** 			{0x0Fu, 0x20u},
 413:Generated_Source\PSoC4/cyfitter_cfg.c **** 			{0x13u, 0x01u},
 414:Generated_Source\PSoC4/cyfitter_cfg.c **** 			{0x18u, 0x01u},
 415:Generated_Source\PSoC4/cyfitter_cfg.c **** 			{0x19u, 0x11u},
 416:Generated_Source\PSoC4/cyfitter_cfg.c **** 			{0x1Au, 0x10u},
 417:Generated_Source\PSoC4/cyfitter_cfg.c **** 			{0x1Eu, 0x8Au},
 418:Generated_Source\PSoC4/cyfitter_cfg.c **** 			{0x20u, 0x10u},
 419:Generated_Source\PSoC4/cyfitter_cfg.c **** 			{0x23u, 0x08u},
 420:Generated_Source\PSoC4/cyfitter_cfg.c **** 			{0x33u, 0x20u},
 421:Generated_Source\PSoC4/cyfitter_cfg.c **** 			{0x38u, 0x80u},
 422:Generated_Source\PSoC4/cyfitter_cfg.c **** 			{0x59u, 0x11u},
 423:Generated_Source\PSoC4/cyfitter_cfg.c **** 			{0x5Bu, 0x88u},
 424:Generated_Source\PSoC4/cyfitter_cfg.c **** 			{0x5Cu, 0x10u},
ARM GAS  C:\Users\mewin\AppData\Local\Temp\ccYfImcN.s 			page 16


 425:Generated_Source\PSoC4/cyfitter_cfg.c **** 			{0x5Eu, 0x8Au},
 426:Generated_Source\PSoC4/cyfitter_cfg.c **** 			{0x60u, 0x01u},
 427:Generated_Source\PSoC4/cyfitter_cfg.c **** 			{0x63u, 0x80u},
 428:Generated_Source\PSoC4/cyfitter_cfg.c **** 			{0x80u, 0x80u},
 429:Generated_Source\PSoC4/cyfitter_cfg.c **** 			{0x83u, 0x41u},
 430:Generated_Source\PSoC4/cyfitter_cfg.c **** 			{0x84u, 0x04u},
 431:Generated_Source\PSoC4/cyfitter_cfg.c **** 			{0x87u, 0x01u},
 432:Generated_Source\PSoC4/cyfitter_cfg.c **** 			{0x8Bu, 0x20u},
 433:Generated_Source\PSoC4/cyfitter_cfg.c **** 			{0x8Eu, 0x10u},
 434:Generated_Source\PSoC4/cyfitter_cfg.c **** 			{0x8Fu, 0xC0u},
 435:Generated_Source\PSoC4/cyfitter_cfg.c **** 			{0x90u, 0x80u},
 436:Generated_Source\PSoC4/cyfitter_cfg.c **** 			{0xA0u, 0x02u},
 437:Generated_Source\PSoC4/cyfitter_cfg.c **** 			{0xA3u, 0x10u},
 438:Generated_Source\PSoC4/cyfitter_cfg.c **** 			{0xA8u, 0x42u},
 439:Generated_Source\PSoC4/cyfitter_cfg.c **** 			{0xC0u, 0x15u},
 440:Generated_Source\PSoC4/cyfitter_cfg.c **** 			{0xC2u, 0x31u},
 441:Generated_Source\PSoC4/cyfitter_cfg.c **** 			{0xC4u, 0x08u},
 442:Generated_Source\PSoC4/cyfitter_cfg.c **** 			{0xCCu, 0x04u},
 443:Generated_Source\PSoC4/cyfitter_cfg.c **** 			{0xCEu, 0x08u},
 444:Generated_Source\PSoC4/cyfitter_cfg.c **** 			{0xD6u, 0xFFu},
 445:Generated_Source\PSoC4/cyfitter_cfg.c **** 			{0xD8u, 0x09u},
 446:Generated_Source\PSoC4/cyfitter_cfg.c **** 			{0xE2u, 0x03u},
 447:Generated_Source\PSoC4/cyfitter_cfg.c **** 			{0xE6u, 0x03u},
 448:Generated_Source\PSoC4/cyfitter_cfg.c **** 			{0xEAu, 0x05u},
 449:Generated_Source\PSoC4/cyfitter_cfg.c **** 			{0x6Bu, 0x10u},
 450:Generated_Source\PSoC4/cyfitter_cfg.c **** 			{0xDAu, 0x40u},
 451:Generated_Source\PSoC4/cyfitter_cfg.c **** 			{0x03u, 0x08u},
 452:Generated_Source\PSoC4/cyfitter_cfg.c **** 			{0x04u, 0x80u},
 453:Generated_Source\PSoC4/cyfitter_cfg.c **** 			{0x87u, 0x08u},
 454:Generated_Source\PSoC4/cyfitter_cfg.c **** 			{0x8Cu, 0x40u},
 455:Generated_Source\PSoC4/cyfitter_cfg.c **** 			{0x9Fu, 0x10u},
 456:Generated_Source\PSoC4/cyfitter_cfg.c **** 			{0xC0u, 0xC0u},
 457:Generated_Source\PSoC4/cyfitter_cfg.c **** 			{0xE4u, 0x40u},
 458:Generated_Source\PSoC4/cyfitter_cfg.c **** 			{0x9Fu, 0x10u},
 459:Generated_Source\PSoC4/cyfitter_cfg.c **** 			{0x83u, 0x10u},
 460:Generated_Source\PSoC4/cyfitter_cfg.c **** 			{0x9Fu, 0x10u},
 461:Generated_Source\PSoC4/cyfitter_cfg.c **** 			{0xE2u, 0x20u},
 462:Generated_Source\PSoC4/cyfitter_cfg.c **** 			{0x00u, 0x20u},
 463:Generated_Source\PSoC4/cyfitter_cfg.c **** 			{0x05u, 0x20u},
 464:Generated_Source\PSoC4/cyfitter_cfg.c **** 			{0xC0u, 0x03u},
 465:Generated_Source\PSoC4/cyfitter_cfg.c **** 			{0x02u, 0x02u},
 466:Generated_Source\PSoC4/cyfitter_cfg.c **** 			{0x03u, 0x40u},
 467:Generated_Source\PSoC4/cyfitter_cfg.c **** 			{0x04u, 0x04u},
 468:Generated_Source\PSoC4/cyfitter_cfg.c **** 			{0x07u, 0x02u},
 469:Generated_Source\PSoC4/cyfitter_cfg.c **** 			{0x41u, 0x82u},
 470:Generated_Source\PSoC4/cyfitter_cfg.c **** 			{0x48u, 0x10u},
 471:Generated_Source\PSoC4/cyfitter_cfg.c **** 			{0x4Du, 0x20u},
 472:Generated_Source\PSoC4/cyfitter_cfg.c **** 			{0x85u, 0x80u},
 473:Generated_Source\PSoC4/cyfitter_cfg.c **** 			{0x8Du, 0x02u},
 474:Generated_Source\PSoC4/cyfitter_cfg.c **** 			{0x99u, 0x20u},
 475:Generated_Source\PSoC4/cyfitter_cfg.c **** 			{0xA0u, 0x10u},
 476:Generated_Source\PSoC4/cyfitter_cfg.c **** 			{0xC0u, 0x0Fu},
 477:Generated_Source\PSoC4/cyfitter_cfg.c **** 			{0xD0u, 0x0Au},
 478:Generated_Source\PSoC4/cyfitter_cfg.c **** 			{0xD2u, 0x06u},
 479:Generated_Source\PSoC4/cyfitter_cfg.c **** 			{0xE4u, 0x08u},
 480:Generated_Source\PSoC4/cyfitter_cfg.c **** 			{0x8Fu, 0x40u},
 481:Generated_Source\PSoC4/cyfitter_cfg.c **** 			{0x90u, 0x04u},
ARM GAS  C:\Users\mewin\AppData\Local\Temp\ccYfImcN.s 			page 17


 482:Generated_Source\PSoC4/cyfitter_cfg.c **** 			{0x9Bu, 0x42u},
 483:Generated_Source\PSoC4/cyfitter_cfg.c **** 			{0xA2u, 0x02u},
 484:Generated_Source\PSoC4/cyfitter_cfg.c **** 			{0xE2u, 0x08u},
 485:Generated_Source\PSoC4/cyfitter_cfg.c **** 			{0x06u, 0x10u},
 486:Generated_Source\PSoC4/cyfitter_cfg.c **** 			{0x09u, 0x80u},
 487:Generated_Source\PSoC4/cyfitter_cfg.c **** 			{0x0Au, 0x10u},
 488:Generated_Source\PSoC4/cyfitter_cfg.c **** 			{0x0Cu, 0x10u},
 489:Generated_Source\PSoC4/cyfitter_cfg.c **** 			{0x0Eu, 0x20u},
 490:Generated_Source\PSoC4/cyfitter_cfg.c **** 			{0x81u, 0x80u},
 491:Generated_Source\PSoC4/cyfitter_cfg.c **** 			{0x82u, 0x10u},
 492:Generated_Source\PSoC4/cyfitter_cfg.c **** 			{0x84u, 0x10u},
 493:Generated_Source\PSoC4/cyfitter_cfg.c **** 			{0x86u, 0x10u},
 494:Generated_Source\PSoC4/cyfitter_cfg.c **** 			{0x8Au, 0x10u},
 495:Generated_Source\PSoC4/cyfitter_cfg.c **** 			{0x8Fu, 0x02u},
 496:Generated_Source\PSoC4/cyfitter_cfg.c **** 			{0x9Bu, 0x02u},
 497:Generated_Source\PSoC4/cyfitter_cfg.c **** 			{0xA8u, 0x04u},
 498:Generated_Source\PSoC4/cyfitter_cfg.c **** 			{0xAAu, 0x02u},
 499:Generated_Source\PSoC4/cyfitter_cfg.c **** 			{0xC0u, 0x04u},
 500:Generated_Source\PSoC4/cyfitter_cfg.c **** 			{0xC2u, 0x0Fu},
 501:Generated_Source\PSoC4/cyfitter_cfg.c **** 			{0xE2u, 0x09u},
 502:Generated_Source\PSoC4/cyfitter_cfg.c **** 			{0x01u, 0x01u},
 503:Generated_Source\PSoC4/cyfitter_cfg.c **** 			{0x12u, 0x01u},
 504:Generated_Source\PSoC4/cyfitter_cfg.c **** 		};
 505:Generated_Source\PSoC4/cyfitter_cfg.c **** 
 506:Generated_Source\PSoC4/cyfitter_cfg.c **** 
 507:Generated_Source\PSoC4/cyfitter_cfg.c **** 
 508:Generated_Source\PSoC4/cyfitter_cfg.c **** 		CYPACKED typedef struct {
 509:Generated_Source\PSoC4/cyfitter_cfg.c **** 			void CYFAR *address;
 510:Generated_Source\PSoC4/cyfitter_cfg.c **** 			uint16 size;
 511:Generated_Source\PSoC4/cyfitter_cfg.c **** 		} CYPACKED_ATTR cfg_memset_t;
 512:Generated_Source\PSoC4/cyfitter_cfg.c **** 
 513:Generated_Source\PSoC4/cyfitter_cfg.c **** 		static const cfg_memset_t CYCODE cfg_memset_list[] = {
 514:Generated_Source\PSoC4/cyfitter_cfg.c **** 			/* address, size */
 515:Generated_Source\PSoC4/cyfitter_cfg.c **** 			{(void CYFAR *)(CYDEV_UDB_P0_U0_BASE), 2048u},
 516:Generated_Source\PSoC4/cyfitter_cfg.c **** 			{(void CYFAR *)(CYDEV_UDB_DSI0_BASE), 2048u},
 517:Generated_Source\PSoC4/cyfitter_cfg.c **** 		};
 518:Generated_Source\PSoC4/cyfitter_cfg.c **** 
 519:Generated_Source\PSoC4/cyfitter_cfg.c **** 		uint8 CYDATA i;
 520:Generated_Source\PSoC4/cyfitter_cfg.c **** 
 521:Generated_Source\PSoC4/cyfitter_cfg.c **** 		/* Zero out critical memory blocks before beginning configuration */
 522:Generated_Source\PSoC4/cyfitter_cfg.c **** 		for (i = 0u; i < (sizeof(cfg_memset_list)/sizeof(cfg_memset_list[0])); i++)
 417              		.loc 1 522 0
 418 0122 0024     		movs	r4, #0
 419 0124 0FE0     		b	.L19
 420              	.LVL25:
 421              	.L20:
 422              	.LBB4:
 523:Generated_Source\PSoC4/cyfitter_cfg.c **** 		{
 524:Generated_Source\PSoC4/cyfitter_cfg.c **** 			const cfg_memset_t CYCODE * CYDATA ms = &cfg_memset_list[i];
 525:Generated_Source\PSoC4/cyfitter_cfg.c **** 			CYMEMZERO(ms->address, (size_t)(uint32)(ms->size));
 423              		.loc 1 525 0 discriminator 3
 424 0126 3D48     		ldr	r0, .L21+4
 425 0128 6200     		lsls	r2, r4, #1
 426 012a 1319     		adds	r3, r2, r4
 427 012c 5900     		lsls	r1, r3, #1
 428 012e 0B00     		movs	r3, r1
 429 0130 4118     		adds	r1, r0, r1
ARM GAS  C:\Users\mewin\AppData\Local\Temp\ccYfImcN.s 			page 18


 430 0132 8988     		ldrh	r1, [r1, #4]
 431 0134 1A5A     		ldrh	r2, [r3, r0]
 432 0136 C318     		adds	r3, r0, r3
 433 0138 5888     		ldrh	r0, [r3, #2]
 434 013a 0004     		lsls	r0, r0, #16
 435 013c 1043     		orrs	r0, r2
 436 013e FFF7FEFF 		bl	CYMEMZERO
 437              	.LVL26:
 438              	.LBE4:
 522:Generated_Source\PSoC4/cyfitter_cfg.c **** 		{
 439              		.loc 1 522 0 discriminator 3
 440 0142 0134     		adds	r4, r4, #1
 441              	.LVL27:
 442 0144 E4B2     		uxtb	r4, r4
 443              	.LVL28:
 444              	.L19:
 522:Generated_Source\PSoC4/cyfitter_cfg.c **** 		{
 445              		.loc 1 522 0 is_stmt 0 discriminator 1
 446 0146 012C     		cmp	r4, #1
 447 0148 EDD9     		bls	.L20
 526:Generated_Source\PSoC4/cyfitter_cfg.c **** 		}
 527:Generated_Source\PSoC4/cyfitter_cfg.c **** 
 528:Generated_Source\PSoC4/cyfitter_cfg.c **** 		cfg_write_bytes32(cy_cfg_addr_table, cy_cfg_data_table);
 448              		.loc 1 528 0 is_stmt 1
 449 014a 3449     		ldr	r1, .L21+4
 450 014c 0C31     		adds	r1, r1, #12
 451 014e 3448     		ldr	r0, .L21+8
 452 0150 0C30     		adds	r0, r0, #12
 453 0152 FFF7FEFF 		bl	cfg_write_bytes32
 454              	.LVL29:
 529:Generated_Source\PSoC4/cyfitter_cfg.c **** 
 530:Generated_Source\PSoC4/cyfitter_cfg.c **** 		/* HSIOM Starting address: CYDEV_HSIOM_BASE */
 531:Generated_Source\PSoC4/cyfitter_cfg.c **** 		CY_SET_REG32((void *)(CYDEV_HSIOM_BASE), 0x080000AAu);
 455              		.loc 1 531 0
 456 0156 334A     		ldr	r2, .L21+12
 457 0158 334B     		ldr	r3, .L21+16
 458 015a 1A60     		str	r2, [r3]
 532:Generated_Source\PSoC4/cyfitter_cfg.c **** 		CY_SET_REG32((void *)(CYREG_HSIOM_PORT_SEL2), 0x00000099u);
 459              		.loc 1 532 0
 460 015c 9922     		movs	r2, #153
 461 015e 334B     		ldr	r3, .L21+20
 462 0160 1A60     		str	r2, [r3]
 533:Generated_Source\PSoC4/cyfitter_cfg.c **** 		CY_SET_REG32((void *)(CYREG_HSIOM_PORT_SEL3), 0x0000EE00u);
 463              		.loc 1 533 0
 464 0162 EE22     		movs	r2, #238
 465 0164 1202     		lsls	r2, r2, #8
 466 0166 324B     		ldr	r3, .L21+24
 467 0168 1A60     		str	r2, [r3]
 534:Generated_Source\PSoC4/cyfitter_cfg.c **** 		CY_SET_REG32((void *)(CYREG_HSIOM_PORT_SEL5), 0x000000EEu);
 468              		.loc 1 534 0
 469 016a EE22     		movs	r2, #238
 470 016c 314B     		ldr	r3, .L21+28
 471 016e 1A60     		str	r2, [r3]
 535:Generated_Source\PSoC4/cyfitter_cfg.c **** 
 536:Generated_Source\PSoC4/cyfitter_cfg.c **** 		/* UDB_PA_0 Starting address: CYDEV_UDB_PA0_BASE */
 537:Generated_Source\PSoC4/cyfitter_cfg.c **** 		CY_SET_REG32((void *)(CYDEV_UDB_PA0_BASE), 0x00990000u);
 472              		.loc 1 537 0
ARM GAS  C:\Users\mewin\AppData\Local\Temp\ccYfImcN.s 			page 19


 473 0170 9923     		movs	r3, #153
 474 0172 1B04     		lsls	r3, r3, #16
 475 0174 304A     		ldr	r2, .L21+32
 476 0176 1360     		str	r3, [r2]
 538:Generated_Source\PSoC4/cyfitter_cfg.c **** 
 539:Generated_Source\PSoC4/cyfitter_cfg.c **** 		/* UDB_PA_1 Starting address: CYDEV_UDB_PA1_BASE */
 540:Generated_Source\PSoC4/cyfitter_cfg.c **** 		CY_SET_REG32((void *)(CYDEV_UDB_PA1_BASE), 0x00990000u);
 477              		.loc 1 540 0
 478 0178 304A     		ldr	r2, .L21+36
 479 017a 1360     		str	r3, [r2]
 541:Generated_Source\PSoC4/cyfitter_cfg.c **** 
 542:Generated_Source\PSoC4/cyfitter_cfg.c **** 		/* UDB_PA_2 Starting address: CYDEV_UDB_PA2_BASE */
 543:Generated_Source\PSoC4/cyfitter_cfg.c **** 		CY_SET_REG32((void *)(CYDEV_UDB_PA2_BASE), 0x00990000u);
 480              		.loc 1 543 0
 481 017c 304A     		ldr	r2, .L21+40
 482 017e 1360     		str	r3, [r2]
 544:Generated_Source\PSoC4/cyfitter_cfg.c **** 
 545:Generated_Source\PSoC4/cyfitter_cfg.c **** 		/* UDB_PA_4 Starting address: CYDEV_UDB_PA4_BASE */
 546:Generated_Source\PSoC4/cyfitter_cfg.c **** 		CY_SET_REG32((void *)(CYDEV_UDB_PA4_BASE), 0x00990000u);
 483              		.loc 1 546 0
 484 0180 304A     		ldr	r2, .L21+44
 485 0182 1360     		str	r3, [r2]
 547:Generated_Source\PSoC4/cyfitter_cfg.c **** 
 548:Generated_Source\PSoC4/cyfitter_cfg.c **** 		/* UDB_PA_5 Starting address: CYDEV_UDB_PA5_BASE */
 549:Generated_Source\PSoC4/cyfitter_cfg.c **** 		CY_SET_REG32((void *)(CYDEV_UDB_PA5_BASE), 0x00990000u);
 486              		.loc 1 549 0
 487 0184 304A     		ldr	r2, .L21+48
 488 0186 1360     		str	r3, [r2]
 550:Generated_Source\PSoC4/cyfitter_cfg.c **** 
 551:Generated_Source\PSoC4/cyfitter_cfg.c **** 		/* UDB_PA_7 Starting address: CYDEV_UDB_PA7_BASE */
 552:Generated_Source\PSoC4/cyfitter_cfg.c **** 		CY_SET_REG32((void *)(CYDEV_UDB_PA7_BASE), 0x00990000u);
 489              		.loc 1 552 0
 490 0188 304A     		ldr	r2, .L21+52
 491 018a 1360     		str	r3, [r2]
 553:Generated_Source\PSoC4/cyfitter_cfg.c **** 
 554:Generated_Source\PSoC4/cyfitter_cfg.c **** 		/* TCPWM_CNT1 Starting address: CYDEV_TCPWM_CNT1_TR_CTRL0 */
 555:Generated_Source\PSoC4/cyfitter_cfg.c **** 		CY_SET_REG32((void *)(CYREG_TCPWM_CNT1_TR_CTRL0), 0x000B0090u);
 492              		.loc 1 555 0
 493 018c 304A     		ldr	r2, .L21+56
 494 018e 314B     		ldr	r3, .L21+60
 495 0190 1A60     		str	r2, [r3]
 556:Generated_Source\PSoC4/cyfitter_cfg.c **** 
 557:Generated_Source\PSoC4/cyfitter_cfg.c **** 		/* TCPWM_CNT2 Starting address: CYDEV_TCPWM_CNT2_TR_CTRL0 */
 558:Generated_Source\PSoC4/cyfitter_cfg.c **** 		CY_SET_REG32((void *)(CYREG_TCPWM_CNT2_TR_CTRL0), 0x000E00F0u);
 496              		.loc 1 558 0
 497 0192 314A     		ldr	r2, .L21+64
 498 0194 314B     		ldr	r3, .L21+68
 499 0196 1A60     		str	r2, [r3]
 559:Generated_Source\PSoC4/cyfitter_cfg.c **** 
 560:Generated_Source\PSoC4/cyfitter_cfg.c **** 		/* INT_SELECT Starting address: CYDEV_CPUSS_INT_SEL */
 561:Generated_Source\PSoC4/cyfitter_cfg.c **** 		CY_SET_REG32((void *)(CYREG_CPUSS_INT_SEL), 0x00000001u);
 500              		.loc 1 561 0
 501 0198 0123     		movs	r3, #1
 502 019a 314A     		ldr	r2, .L21+72
 503 019c 1360     		str	r3, [r2]
 562:Generated_Source\PSoC4/cyfitter_cfg.c **** 
 563:Generated_Source\PSoC4/cyfitter_cfg.c **** 		/* INT_CONFIG Starting address: CYDEV_UDB_INT_CFG */
ARM GAS  C:\Users\mewin\AppData\Local\Temp\ccYfImcN.s 			page 20


 564:Generated_Source\PSoC4/cyfitter_cfg.c **** 		CY_SET_REG32((void *)(CYREG_UDB_INT_CFG), 0x00000001u);
 504              		.loc 1 564 0
 505 019e 314A     		ldr	r2, .L21+76
 506 01a0 1360     		str	r3, [r2]
 565:Generated_Source\PSoC4/cyfitter_cfg.c **** 
 566:Generated_Source\PSoC4/cyfitter_cfg.c **** 		/* Enable UDB array and digital routing */
 567:Generated_Source\PSoC4/cyfitter_cfg.c **** 		CY_SET_XTND_REG8((void *)CYREG_UDB_UDB_WAIT_CFG, (uint8)((CY_GET_XTND_REG8((void *)CYREG_UDB_UDB_
 507              		.loc 1 567 0
 508 01a2 3149     		ldr	r1, .L21+80
 509 01a4 0B78     		ldrb	r3, [r1]
 510 01a6 3C22     		movs	r2, #60
 511 01a8 9343     		bics	r3, r2
 512 01aa 1422     		movs	r2, #20
 513 01ac 1343     		orrs	r3, r2
 514 01ae DBB2     		uxtb	r3, r3
 515 01b0 0B70     		strb	r3, [r1]
 568:Generated_Source\PSoC4/cyfitter_cfg.c **** 		CY_SET_XTND_REG8((void *)CYREG_UDB_UDB_BANK_CTL, (uint8)(CY_GET_XTND_REG8((void *)CYREG_UDB_UDB_B
 516              		.loc 1 568 0
 517 01b2 2E4A     		ldr	r2, .L21+84
 518 01b4 1178     		ldrb	r1, [r2]
 519 01b6 1623     		movs	r3, #22
 520 01b8 0B43     		orrs	r3, r1
 521 01ba DBB2     		uxtb	r3, r3
 522 01bc 1370     		strb	r3, [r2]
 523              	.LBE3:
 569:Generated_Source\PSoC4/cyfitter_cfg.c **** 	}
 570:Generated_Source\PSoC4/cyfitter_cfg.c **** 
 571:Generated_Source\PSoC4/cyfitter_cfg.c **** 	/* Perform second pass device configuration. These items must be configured in specific order afte
 572:Generated_Source\PSoC4/cyfitter_cfg.c **** 	/* IOPINS0_0 Starting address: CYDEV_GPIO_PRT0_BASE */
 573:Generated_Source\PSoC4/cyfitter_cfg.c **** 	CY_SET_REG32((void *)(CYDEV_GPIO_PRT0_BASE), 0x00000002u);
 524              		.loc 1 573 0
 525 01be 0222     		movs	r2, #2
 526 01c0 2B4B     		ldr	r3, .L21+88
 527 01c2 1A60     		str	r2, [r3]
 574:Generated_Source\PSoC4/cyfitter_cfg.c **** 	CY_SET_REG32((void *)(CYREG_GPIO_PRT0_PC), 0x00040271u);
 528              		.loc 1 574 0
 529 01c4 2B4A     		ldr	r2, .L21+92
 530 01c6 2C4B     		ldr	r3, .L21+96
 531 01c8 1A60     		str	r2, [r3]
 575:Generated_Source\PSoC4/cyfitter_cfg.c **** 
 576:Generated_Source\PSoC4/cyfitter_cfg.c **** 	/* IOPINS0_1 Starting address: CYDEV_GPIO_PRT1_BASE */
 577:Generated_Source\PSoC4/cyfitter_cfg.c **** 	CY_SET_REG32((void *)(CYREG_GPIO_PRT1_PC), 0x00000240u);
 532              		.loc 1 577 0
 533 01ca 9022     		movs	r2, #144
 534 01cc 9200     		lsls	r2, r2, #2
 535 01ce 2B4B     		ldr	r3, .L21+100
 536 01d0 1A60     		str	r2, [r3]
 578:Generated_Source\PSoC4/cyfitter_cfg.c **** 	CY_SET_REG32((void *)(CYREG_GPIO_PRT1_PC2), 0x00000080u);
 537              		.loc 1 578 0
 538 01d2 C13A     		subs	r2, r2, #193
 539 01d4 FF3A     		subs	r2, r2, #255
 540 01d6 2A4B     		ldr	r3, .L21+104
 541 01d8 1A60     		str	r2, [r3]
 579:Generated_Source\PSoC4/cyfitter_cfg.c **** 
 580:Generated_Source\PSoC4/cyfitter_cfg.c **** 	/* IOPINS0_2 Starting address: CYDEV_GPIO_PRT2_BASE */
 581:Generated_Source\PSoC4/cyfitter_cfg.c **** 	CY_SET_REG32((void *)(CYDEV_GPIO_PRT2_BASE), 0x000000C2u);
 542              		.loc 1 581 0
ARM GAS  C:\Users\mewin\AppData\Local\Temp\ccYfImcN.s 			page 21


 543 01da C223     		movs	r3, #194
 544 01dc 294A     		ldr	r2, .L21+108
 545 01de 1360     		str	r3, [r2]
 582:Generated_Source\PSoC4/cyfitter_cfg.c **** 	CY_SET_REG32((void *)(CYREG_GPIO_PRT2_PC), 0x00000031u);
 546              		.loc 1 582 0
 547 01e0 3121     		movs	r1, #49
 548 01e2 294A     		ldr	r2, .L21+112
 549 01e4 1160     		str	r1, [r2]
 583:Generated_Source\PSoC4/cyfitter_cfg.c **** 	CY_SET_REG32((void *)(CYREG_GPIO_PRT2_PC2), 0x000000C2u);
 550              		.loc 1 583 0
 551 01e6 294A     		ldr	r2, .L21+116
 552 01e8 1360     		str	r3, [r2]
 584:Generated_Source\PSoC4/cyfitter_cfg.c **** 
 585:Generated_Source\PSoC4/cyfitter_cfg.c **** 	/* IOPINS0_3 Starting address: CYDEV_GPIO_PRT3_BASE */
 586:Generated_Source\PSoC4/cyfitter_cfg.c **** 	CY_SET_REG32((void *)(CYDEV_GPIO_PRT3_BASE), 0x000000F2u);
 553              		.loc 1 586 0
 554 01ea F222     		movs	r2, #242
 555 01ec 284B     		ldr	r3, .L21+120
 556 01ee 1A60     		str	r2, [r3]
 587:Generated_Source\PSoC4/cyfitter_cfg.c **** 	CY_SET_REG32((void *)(CYREG_GPIO_PRT3_PC), 0x00492D90u);
 557              		.loc 1 587 0
 558 01f0 284A     		ldr	r2, .L21+124
 559 01f2 294B     		ldr	r3, .L21+128
 560 01f4 1A60     		str	r2, [r3]
 588:Generated_Source\PSoC4/cyfitter_cfg.c **** 
 589:Generated_Source\PSoC4/cyfitter_cfg.c **** 	/* IOPINS0_4 Starting address: CYDEV_GPIO_PRT4_BASE */
 590:Generated_Source\PSoC4/cyfitter_cfg.c **** 	CY_SET_REG32((void *)(CYDEV_GPIO_PRT4_BASE), 0x0000000Fu);
 561              		.loc 1 590 0
 562 01f6 0F22     		movs	r2, #15
 563 01f8 284B     		ldr	r3, .L21+132
 564 01fa 1A60     		str	r2, [r3]
 591:Generated_Source\PSoC4/cyfitter_cfg.c **** 	CY_SET_REG32((void *)(CYREG_GPIO_PRT4_PC), 0x001B6492u);
 565              		.loc 1 591 0
 566 01fc 284A     		ldr	r2, .L21+136
 567 01fe 294B     		ldr	r3, .L21+140
 568 0200 1A60     		str	r2, [r3]
 592:Generated_Source\PSoC4/cyfitter_cfg.c **** 
 593:Generated_Source\PSoC4/cyfitter_cfg.c **** 	/* IOPINS0_5 Starting address: CYDEV_GPIO_PRT5_BASE */
 594:Generated_Source\PSoC4/cyfitter_cfg.c **** 	CY_SET_REG32((void *)(CYDEV_GPIO_PRT5_BASE), 0x00000003u);
 569              		.loc 1 594 0
 570 0202 0322     		movs	r2, #3
 571 0204 284B     		ldr	r3, .L21+144
 572 0206 1A60     		str	r2, [r3]
 595:Generated_Source\PSoC4/cyfitter_cfg.c **** 	CY_SET_REG32((void *)(CYREG_GPIO_PRT5_PC), 0x00000024u);
 573              		.loc 1 595 0
 574 0208 2132     		adds	r2, r2, #33
 575 020a 284B     		ldr	r3, .L21+148
 576 020c 1A60     		str	r2, [r3]
 596:Generated_Source\PSoC4/cyfitter_cfg.c **** 
 597:Generated_Source\PSoC4/cyfitter_cfg.c **** 
 598:Generated_Source\PSoC4/cyfitter_cfg.c **** 	/* Setup clocks based on selections from Clock DWR */
 599:Generated_Source\PSoC4/cyfitter_cfg.c **** 	ClockSetup();
 577              		.loc 1 599 0
 578 020e FFF7F7FE 		bl	ClockSetup
 579              	.LVL30:
 600:Generated_Source\PSoC4/cyfitter_cfg.c **** 
 601:Generated_Source\PSoC4/cyfitter_cfg.c **** 	/* Perform basic analog initialization to defaults */
ARM GAS  C:\Users\mewin\AppData\Local\Temp\ccYfImcN.s 			page 22


 602:Generated_Source\PSoC4/cyfitter_cfg.c **** 	AnalogSetDefault();
 580              		.loc 1 602 0
 581 0212 FFF7FEFF 		bl	AnalogSetDefault
 582              	.LVL31:
 603:Generated_Source\PSoC4/cyfitter_cfg.c **** 
 604:Generated_Source\PSoC4/cyfitter_cfg.c **** }
 583              		.loc 1 604 0
 584              		@ sp needed
 585              	.LVL32:
 586 0216 10BD     		pop	{r4, pc}
 587              	.L22:
 588              		.align	2
 589              	.L21:
 590 0218 1C700F40 		.word	1074753564
 591 021c 00000000 		.word	.LANCHOR0
 592 0220 00010000 		.word	.LANCHOR1
 593 0224 AA000008 		.word	134217898
 594 0228 00000240 		.word	1073872896
 595 022c 00020240 		.word	1073873408
 596 0230 00030240 		.word	1073873664
 597 0234 00050240 		.word	1073874176
 598 0238 00500F40 		.word	1074745344
 599 023c 10500F40 		.word	1074745360
 600 0240 20500F40 		.word	1074745376
 601 0244 40500F40 		.word	1074745408
 602 0248 50500F40 		.word	1074745424
 603 024c 70500F40 		.word	1074745456
 604 0250 90000B00 		.word	721040
 605 0254 60012040 		.word	1075839328
 606 0258 F0000E00 		.word	917744
 607 025c A0012040 		.word	1075839392
 608 0260 20001040 		.word	1074790432
 609 0264 00800F40 		.word	1074757632
 610 0268 01700F40 		.word	1074753537
 611 026c 00700F40 		.word	1074753536
 612 0270 00000440 		.word	1074003968
 613 0274 71020400 		.word	262769
 614 0278 08000440 		.word	1074003976
 615 027c 08010440 		.word	1074004232
 616 0280 18010440 		.word	1074004248
 617 0284 00020440 		.word	1074004480
 618 0288 08020440 		.word	1074004488
 619 028c 18020440 		.word	1074004504
 620 0290 00030440 		.word	1074004736
 621 0294 902D4900 		.word	4795792
 622 0298 08030440 		.word	1074004744
 623 029c 00040440 		.word	1074004992
 624 02a0 92641B00 		.word	1795218
 625 02a4 08040440 		.word	1074005000
 626 02a8 00050440 		.word	1074005248
 627 02ac 08050440 		.word	1074005256
 628              		.cfi_endproc
 629              	.LFE8:
 630              		.size	cyfitter_cfg, .-cyfitter_cfg
 631              		.section	.rodata
 632              		.align	2
 633              		.set	.LANCHOR0,. + 0
ARM GAS  C:\Users\mewin\AppData\Local\Temp\ccYfImcN.s 			page 23


 634              		.set	.LANCHOR1,. + 256
 635              		.type	cfg_memset_list.4977, %object
 636              		.size	cfg_memset_list.4977, 12
 637              	cfg_memset_list.4977:
 638 0000 00300F40 		.word	1074737152
 639 0004 0008     		.short	2048
 640 0006 00400F40 		.4byte	1074741248
 641 000a 0008     		.short	2048
 642              		.type	cy_cfg_data_table.4972, %object
 643              		.size	cy_cfg_data_table.4972, 256
 644              	cy_cfg_data_table.4972:
 645 000c 87       		.byte	-121
 646 000d 1F       		.byte	31
 647 000e E4       		.byte	-28
 648 000f 12       		.byte	18
 649 0010 8F       		.byte	-113
 650 0011 10       		.byte	16
 651 0012 00       		.byte	0
 652 0013 02       		.byte	2
 653 0014 10       		.byte	16
 654 0015 04       		.byte	4
 655 0016 14       		.byte	20
 656 0017 01       		.byte	1
 657 0018 30       		.byte	48
 658 0019 02       		.byte	2
 659 001a 34       		.byte	52
 660 001b 04       		.byte	4
 661 001c 36       		.byte	54
 662 001d 01       		.byte	1
 663 001e 3E       		.byte	62
 664 001f 51       		.byte	81
 665 0020 58       		.byte	88
 666 0021 04       		.byte	4
 667 0022 5B       		.byte	91
 668 0023 04       		.byte	4
 669 0024 5F       		.byte	95
 670 0025 01       		.byte	1
 671 0026 84       		.byte	-124
 672 0027 01       		.byte	1
 673 0028 8C       		.byte	-116
 674 0029 04       		.byte	4
 675 002a 8D       		.byte	-115
 676 002b 01       		.byte	1
 677 002c 99       		.byte	-103
 678 002d 02       		.byte	2
 679 002e 9C       		.byte	-100
 680 002f 08       		.byte	8
 681 0030 A0       		.byte	-96
 682 0031 02       		.byte	2
 683 0032 B0       		.byte	-80
 684 0033 08       		.byte	8
 685 0034 B2       		.byte	-78
 686 0035 04       		.byte	4
 687 0036 B3       		.byte	-77
 688 0037 01       		.byte	1
 689 0038 B4       		.byte	-76
 690 0039 02       		.byte	2
ARM GAS  C:\Users\mewin\AppData\Local\Temp\ccYfImcN.s 			page 24


 691 003a B5       		.byte	-75
 692 003b 02       		.byte	2
 693 003c B6       		.byte	-74
 694 003d 01       		.byte	1
 695 003e BF       		.byte	-65
 696 003f 04       		.byte	4
 697 0040 D6       		.byte	-42
 698 0041 04       		.byte	4
 699 0042 D8       		.byte	-40
 700 0043 04       		.byte	4
 701 0044 D9       		.byte	-39
 702 0045 04       		.byte	4
 703 0046 DB       		.byte	-37
 704 0047 04       		.byte	4
 705 0048 DF       		.byte	-33
 706 0049 01       		.byte	1
 707 004a 00       		.byte	0
 708 004b 08       		.byte	8
 709 004c 03       		.byte	3
 710 004d 01       		.byte	1
 711 004e 07       		.byte	7
 712 004f 40       		.byte	64
 713 0050 08       		.byte	8
 714 0051 80       		.byte	-128
 715 0052 0C       		.byte	12
 716 0053 02       		.byte	2
 717 0054 0F       		.byte	15
 718 0055 20       		.byte	32
 719 0056 13       		.byte	19
 720 0057 01       		.byte	1
 721 0058 18       		.byte	24
 722 0059 01       		.byte	1
 723 005a 19       		.byte	25
 724 005b 11       		.byte	17
 725 005c 1A       		.byte	26
 726 005d 10       		.byte	16
 727 005e 1E       		.byte	30
 728 005f 8A       		.byte	-118
 729 0060 20       		.byte	32
 730 0061 10       		.byte	16
 731 0062 23       		.byte	35
 732 0063 08       		.byte	8
 733 0064 33       		.byte	51
 734 0065 20       		.byte	32
 735 0066 38       		.byte	56
 736 0067 80       		.byte	-128
 737 0068 59       		.byte	89
 738 0069 11       		.byte	17
 739 006a 5B       		.byte	91
 740 006b 88       		.byte	-120
 741 006c 5C       		.byte	92
 742 006d 10       		.byte	16
 743 006e 5E       		.byte	94
 744 006f 8A       		.byte	-118
 745 0070 60       		.byte	96
 746 0071 01       		.byte	1
 747 0072 63       		.byte	99
ARM GAS  C:\Users\mewin\AppData\Local\Temp\ccYfImcN.s 			page 25


 748 0073 80       		.byte	-128
 749 0074 80       		.byte	-128
 750 0075 80       		.byte	-128
 751 0076 83       		.byte	-125
 752 0077 41       		.byte	65
 753 0078 84       		.byte	-124
 754 0079 04       		.byte	4
 755 007a 87       		.byte	-121
 756 007b 01       		.byte	1
 757 007c 8B       		.byte	-117
 758 007d 20       		.byte	32
 759 007e 8E       		.byte	-114
 760 007f 10       		.byte	16
 761 0080 8F       		.byte	-113
 762 0081 C0       		.byte	-64
 763 0082 90       		.byte	-112
 764 0083 80       		.byte	-128
 765 0084 A0       		.byte	-96
 766 0085 02       		.byte	2
 767 0086 A3       		.byte	-93
 768 0087 10       		.byte	16
 769 0088 A8       		.byte	-88
 770 0089 42       		.byte	66
 771 008a C0       		.byte	-64
 772 008b 15       		.byte	21
 773 008c C2       		.byte	-62
 774 008d 31       		.byte	49
 775 008e C4       		.byte	-60
 776 008f 08       		.byte	8
 777 0090 CC       		.byte	-52
 778 0091 04       		.byte	4
 779 0092 CE       		.byte	-50
 780 0093 08       		.byte	8
 781 0094 D6       		.byte	-42
 782 0095 FF       		.byte	-1
 783 0096 D8       		.byte	-40
 784 0097 09       		.byte	9
 785 0098 E2       		.byte	-30
 786 0099 03       		.byte	3
 787 009a E6       		.byte	-26
 788 009b 03       		.byte	3
 789 009c EA       		.byte	-22
 790 009d 05       		.byte	5
 791 009e 6B       		.byte	107
 792 009f 10       		.byte	16
 793 00a0 DA       		.byte	-38
 794 00a1 40       		.byte	64
 795 00a2 03       		.byte	3
 796 00a3 08       		.byte	8
 797 00a4 04       		.byte	4
 798 00a5 80       		.byte	-128
 799 00a6 87       		.byte	-121
 800 00a7 08       		.byte	8
 801 00a8 8C       		.byte	-116
 802 00a9 40       		.byte	64
 803 00aa 9F       		.byte	-97
 804 00ab 10       		.byte	16
ARM GAS  C:\Users\mewin\AppData\Local\Temp\ccYfImcN.s 			page 26


 805 00ac C0       		.byte	-64
 806 00ad C0       		.byte	-64
 807 00ae E4       		.byte	-28
 808 00af 40       		.byte	64
 809 00b0 9F       		.byte	-97
 810 00b1 10       		.byte	16
 811 00b2 83       		.byte	-125
 812 00b3 10       		.byte	16
 813 00b4 9F       		.byte	-97
 814 00b5 10       		.byte	16
 815 00b6 E2       		.byte	-30
 816 00b7 20       		.byte	32
 817 00b8 00       		.byte	0
 818 00b9 20       		.byte	32
 819 00ba 05       		.byte	5
 820 00bb 20       		.byte	32
 821 00bc C0       		.byte	-64
 822 00bd 03       		.byte	3
 823 00be 02       		.byte	2
 824 00bf 02       		.byte	2
 825 00c0 03       		.byte	3
 826 00c1 40       		.byte	64
 827 00c2 04       		.byte	4
 828 00c3 04       		.byte	4
 829 00c4 07       		.byte	7
 830 00c5 02       		.byte	2
 831 00c6 41       		.byte	65
 832 00c7 82       		.byte	-126
 833 00c8 48       		.byte	72
 834 00c9 10       		.byte	16
 835 00ca 4D       		.byte	77
 836 00cb 20       		.byte	32
 837 00cc 85       		.byte	-123
 838 00cd 80       		.byte	-128
 839 00ce 8D       		.byte	-115
 840 00cf 02       		.byte	2
 841 00d0 99       		.byte	-103
 842 00d1 20       		.byte	32
 843 00d2 A0       		.byte	-96
 844 00d3 10       		.byte	16
 845 00d4 C0       		.byte	-64
 846 00d5 0F       		.byte	15
 847 00d6 D0       		.byte	-48
 848 00d7 0A       		.byte	10
 849 00d8 D2       		.byte	-46
 850 00d9 06       		.byte	6
 851 00da E4       		.byte	-28
 852 00db 08       		.byte	8
 853 00dc 8F       		.byte	-113
 854 00dd 40       		.byte	64
 855 00de 90       		.byte	-112
 856 00df 04       		.byte	4
 857 00e0 9B       		.byte	-101
 858 00e1 42       		.byte	66
 859 00e2 A2       		.byte	-94
 860 00e3 02       		.byte	2
 861 00e4 E2       		.byte	-30
ARM GAS  C:\Users\mewin\AppData\Local\Temp\ccYfImcN.s 			page 27


 862 00e5 08       		.byte	8
 863 00e6 06       		.byte	6
 864 00e7 10       		.byte	16
 865 00e8 09       		.byte	9
 866 00e9 80       		.byte	-128
 867 00ea 0A       		.byte	10
 868 00eb 10       		.byte	16
 869 00ec 0C       		.byte	12
 870 00ed 10       		.byte	16
 871 00ee 0E       		.byte	14
 872 00ef 20       		.byte	32
 873 00f0 81       		.byte	-127
 874 00f1 80       		.byte	-128
 875 00f2 82       		.byte	-126
 876 00f3 10       		.byte	16
 877 00f4 84       		.byte	-124
 878 00f5 10       		.byte	16
 879 00f6 86       		.byte	-122
 880 00f7 10       		.byte	16
 881 00f8 8A       		.byte	-118
 882 00f9 10       		.byte	16
 883 00fa 8F       		.byte	-113
 884 00fb 02       		.byte	2
 885 00fc 9B       		.byte	-101
 886 00fd 02       		.byte	2
 887 00fe A8       		.byte	-88
 888 00ff 04       		.byte	4
 889 0100 AA       		.byte	-86
 890 0101 02       		.byte	2
 891 0102 C0       		.byte	-64
 892 0103 04       		.byte	4
 893 0104 C2       		.byte	-62
 894 0105 0F       		.byte	15
 895 0106 E2       		.byte	-30
 896 0107 09       		.byte	9
 897 0108 01       		.byte	1
 898 0109 01       		.byte	1
 899 010a 12       		.byte	18
 900 010b 01       		.byte	1
 901              		.type	cy_cfg_addr_table.4971, %object
 902              		.size	cy_cfg_addr_table.4971, 56
 903              	cy_cfg_addr_table.4971:
 904 010c 01000F40 		.word	1074724865
 905 0110 01330F40 		.word	1074737921
 906 0114 01350F40 		.word	1074738433
 907 0118 1C360F40 		.word	1074738716
 908 011c 2A370F40 		.word	1074738986
 909 0120 02400F40 		.word	1074741250
 910 0124 07410F40 		.word	1074741511
 911 0128 01420F40 		.word	1074741761
 912 012c 03430F40 		.word	1074742019
 913 0130 03440F40 		.word	1074742275
 914 0134 0F450F40 		.word	1074742543
 915 0138 05460F40 		.word	1074742789
 916 013c 11470F40 		.word	1074743057
 917 0140 02600F40 		.word	1074749442
 918              		.text
ARM GAS  C:\Users\mewin\AppData\Local\Temp\ccYfImcN.s 			page 28


 919              	.Letext0:
 920              		.file 2 "c:\\program files (x86)\\cypress\\psoc creator\\4.4\\psoc creator\\import\\gnu\\arm\\5.4.
 921              		.file 3 "Generated_Source\\PSoC4\\cytypes.h"
 922              		.file 4 "Generated_Source\\PSoC4\\CyLib.h"