ARM GAS  C:\Users\mewin\AppData\Local\Temp\cc3iSe65.s 			page 1


   1              		.syntax unified
   2              		.cpu cortex-m0
   3              		.fpu softvfp
   4              		.eabi_attribute 20, 1
   5              		.eabi_attribute 21, 1
   6              		.eabi_attribute 23, 3
   7              		.eabi_attribute 24, 1
   8              		.eabi_attribute 25, 1
   9              		.eabi_attribute 26, 1
  10              		.eabi_attribute 30, 1
  11              		.eabi_attribute 34, 0
  12              		.eabi_attribute 18, 4
  13              		.thumb
  14              		.syntax unified
  15              		.file	"main.c"
  16              		.text
  17              	.Ltext0:
  18              		.cfi_sections	.debug_frame
  19              		.section	.text.Enc2_Handler,"ax",%progbits
  20              		.align	2
  21              		.global	Enc2_Handler
  22              		.code	16
  23              		.thumb_func
  24              		.type	Enc2_Handler, %function
  25              	Enc2_Handler:
  26              	.LFB34:
  27              		.file 1 "main.c"
   1:main.c        ****    /* File:         main.c
   2:main.c        ****  * Authors:      Oliver Huang, Jordan Smith.
   3:main.c        ****  * Organization: Husky Robotics Team
   4:main.c        ****  * Firmware for Science Sensors Board (2022)
   5:main.c        ****  */
   6:main.c        **** #include "project.h"
   7:main.c        **** #include "CANLibrary.h"
   8:main.c        **** #include "CANScience.h"
   9:main.c        **** #include "sensor.h"
  10:main.c        **** #include <stdint.h>
  11:main.c        **** #include "PCA9685.h"
  12:main.c        **** #include "servo.h"
  13:main.c        **** #include <stdlib.h>
  14:main.c        **** #include <math.h>
  15:main.c        **** #include "Milliseconds.h"
  16:main.c        **** 
  17:main.c        **** #define LED_COLOR_ID 0xF7
  18:main.c        **** #define TICKS_TO_NEXT_CUP 20
  19:main.c        **** #define LED_ON 1
  20:main.c        **** #define LED_OFF 0
  21:main.c        **** 
  22:main.c        **** CANPacket can_send;
  23:main.c        **** CANPacket current;
  24:main.c        **** uint32_t time_ms;
  25:main.c        **** // lazy susan
  26:main.c        **** int8_t target_cup_pos;
  27:main.c        **** int8_t first_cup_pos;
  28:main.c        **** int32_t encoder_val;
  29:main.c        **** double ideal_encoder_val;
  30:main.c        **** double target_encoder_val;
ARM GAS  C:\Users\mewin\AppData\Local\Temp\cc3iSe65.s 			page 2


  31:main.c        **** uint8_t has_moved;
  32:main.c        **** uint8_t moving;
  33:main.c        **** int curr_power;
  34:main.c        **** 
  35:main.c        **** // leds
  36:main.c        **** uint8_t CAN_time_LED = 0;
  37:main.c        **** uint8_t ERRORTimeLED = 0;
  38:main.c        **** 
  39:main.c        **** CY_ISR(Enc2_Handler) {
  28              		.loc 1 39 0
  29              		.cfi_startproc
  30              		@ args = 0, pretend = 0, frame = 0
  31              		@ frame_needed = 0, uses_anonymous_args = 0
  32 0000 10B5     		push	{r4, lr}
  33              		.cfi_def_cfa_offset 8
  34              		.cfi_offset 4, -8
  35              		.cfi_offset 14, -4
  40:main.c        ****     QuadDec_2_ClearInterrupt(QuadDec_2_INTR_MASK_CC_MATCH);
  36              		.loc 1 40 0
  37 0002 0220     		movs	r0, #2
  38 0004 FFF7FEFF 		bl	QuadDec_2_ClearInterrupt
  39              	.LVL0:
  41:main.c        **** }    
  40              		.loc 1 41 0
  41              		@ sp needed
  42 0008 10BD     		pop	{r4, pc}
  43              		.cfi_endproc
  44              	.LFE34:
  45              		.size	Enc2_Handler, .-Enc2_Handler
  46 000a C046     		.section	.text.Limit_Handler,"ax",%progbits
  47              		.align	2
  48              		.global	Limit_Handler
  49              		.code	16
  50              		.thumb_func
  51              		.type	Limit_Handler, %function
  52              	Limit_Handler:
  53              	.LFB35:
  42:main.c        **** 
  43:main.c        **** CY_ISR(Limit_Handler){
  54              		.loc 1 43 0
  55              		.cfi_startproc
  56              		@ args = 0, pretend = 0, frame = 0
  57              		@ frame_needed = 0, uses_anonymous_args = 0
  58 0000 10B5     		push	{r4, lr}
  59              		.cfi_def_cfa_offset 8
  60              		.cfi_offset 4, -8
  61              		.cfi_offset 14, -4
  44:main.c        ****     //Stuff to do during interupt
  45:main.c        ****     AssembleLimitSwitchAlertPacket(&can_send, DEVICE_GROUP_JETSON, 
  46:main.c        ****         DEVICE_SERIAL_JETSON, Status_Reg_LIM_Read() & 0b11);
  62              		.loc 1 46 0
  63 0002 FFF7FEFF 		bl	Status_Reg_LIM_Read
  64              	.LVL1:
  45:main.c        ****         DEVICE_SERIAL_JETSON, Status_Reg_LIM_Read() & 0b11);
  65              		.loc 1 45 0
  66 0006 0323     		movs	r3, #3
  67 0008 0340     		ands	r3, r0
ARM GAS  C:\Users\mewin\AppData\Local\Temp\cc3iSe65.s 			page 3


  68 000a 054C     		ldr	r4, .L3
  69 000c 0122     		movs	r2, #1
  70 000e 0221     		movs	r1, #2
  71 0010 2000     		movs	r0, r4
  72 0012 FFF7FEFF 		bl	AssembleLimitSwitchAlertPacket
  73              	.LVL2:
  47:main.c        ****     SendCANPacket(&can_send);
  74              		.loc 1 47 0
  75 0016 2000     		movs	r0, r4
  76 0018 FFF7FEFF 		bl	SendCANPacket
  77              	.LVL3:
  48:main.c        **** }
  78              		.loc 1 48 0
  79              		@ sp needed
  80 001c 10BD     		pop	{r4, pc}
  81              	.L4:
  82 001e C046     		.align	2
  83              	.L3:
  84 0020 00000000 		.word	can_send
  85              		.cfi_endproc
  86              	.LFE35:
  87              		.size	Limit_Handler, .-Limit_Handler
  88              		.section	.text.LED_Timer_Handler,"ax",%progbits
  89              		.align	2
  90              		.global	LED_Timer_Handler
  91              		.code	16
  92              		.thumb_func
  93              		.type	LED_Timer_Handler, %function
  94              	LED_Timer_Handler:
  95              	.LFB36:
  49:main.c        **** 
  50:main.c        **** CY_ISR(LED_Timer_Handler) {
  96              		.loc 1 50 0
  97              		.cfi_startproc
  98              		@ args = 0, pretend = 0, frame = 0
  99              		@ frame_needed = 0, uses_anonymous_args = 0
 100 0000 10B5     		push	{r4, lr}
 101              		.cfi_def_cfa_offset 8
 102              		.cfi_offset 4, -8
 103              		.cfi_offset 14, -4
  51:main.c        ****     int timer = Timer_LEDs_ReadStatusRegister();
 104              		.loc 1 51 0
 105 0002 FFF7FEFF 		bl	Timer_LEDs_ReadStatusRegister
 106              	.LVL4:
  52:main.c        ****     CAN_time_LED++;
 107              		.loc 1 52 0
 108 0006 0C4A     		ldr	r2, .L8
 109 0008 1378     		ldrb	r3, [r2]
 110 000a 0133     		adds	r3, r3, #1
 111 000c 1370     		strb	r3, [r2]
  53:main.c        ****     ERRORTimeLED++;
 112              		.loc 1 53 0
 113 000e 5378     		ldrb	r3, [r2, #1]
 114 0010 0133     		adds	r3, r3, #1
 115 0012 DBB2     		uxtb	r3, r3
 116 0014 5370     		strb	r3, [r2, #1]
  54:main.c        ****    
ARM GAS  C:\Users\mewin\AppData\Local\Temp\cc3iSe65.s 			page 4


  55:main.c        ****     if(ERRORTimeLED >= 3) {
 117              		.loc 1 55 0
 118 0016 022B     		cmp	r3, #2
 119 0018 05D9     		bls	.L6
  56:main.c        ****         ERR_LED_Write(0); // off 
 120              		.loc 1 56 0
 121 001a 0020     		movs	r0, #0
 122 001c FFF7FEFF 		bl	ERR_LED_Write
 123              	.LVL5:
  57:main.c        ****         DBG_LED_Write(0);
 124              		.loc 1 57 0
 125 0020 0020     		movs	r0, #0
 126 0022 FFF7FEFF 		bl	DBG_LED_Write
 127              	.LVL6:
 128              	.L6:
  58:main.c        ****     }
  59:main.c        ****     if(CAN_time_LED >= 3){
 129              		.loc 1 59 0
 130 0026 044B     		ldr	r3, .L8
 131 0028 1B78     		ldrb	r3, [r3]
 132 002a 022B     		cmp	r3, #2
 133 002c 02D9     		bls	.L5
  60:main.c        ****         CAN_LED_Write(LED_OFF);
 134              		.loc 1 60 0
 135 002e 0020     		movs	r0, #0
 136 0030 FFF7FEFF 		bl	CAN_LED_Write
 137              	.LVL7:
 138              	.L5:
  61:main.c        ****     }
  62:main.c        **** }
 139              		.loc 1 62 0
 140              		@ sp needed
 141 0034 10BD     		pop	{r4, pc}
 142              	.L9:
 143 0036 C046     		.align	2
 144              	.L8:
 145 0038 00000000 		.word	.LANCHOR0
 146              		.cfi_endproc
 147              	.LFE36:
 148              		.size	LED_Timer_Handler, .-LED_Timer_Handler
 149              		.global	__aeabi_i2d
 150              		.global	__aeabi_dcmpge
 151              		.global	__aeabi_dcmple
 152              		.global	__aeabi_dmul
 153              		.global	__aeabi_dsub
 154              		.global	__aeabi_dadd
 155              		.section	.text.main,"ax",%progbits
 156              		.align	2
 157              		.global	main
 158              		.code	16
 159              		.thumb_func
 160              		.type	main, %function
 161              	main:
 162              	.LFB37:
  63:main.c        **** 
  64:main.c        **** int main(void)
  65:main.c        **** {
ARM GAS  C:\Users\mewin\AppData\Local\Temp\cc3iSe65.s 			page 5


 163              		.loc 1 65 0
 164              		.cfi_startproc
 165              		@ args = 0, pretend = 0, frame = 8
 166              		@ frame_needed = 0, uses_anonymous_args = 0
 167 0000 F0B5     		push	{r4, r5, r6, r7, lr}
 168              		.cfi_def_cfa_offset 20
 169              		.cfi_offset 4, -20
 170              		.cfi_offset 5, -16
 171              		.cfi_offset 6, -12
 172              		.cfi_offset 7, -8
 173              		.cfi_offset 14, -4
 174 0002 4746     		mov	r7, r8
 175 0004 80B4     		push	{r7}
 176              		.cfi_def_cfa_offset 24
 177              		.cfi_offset 8, -24
 178 0006 82B0     		sub	sp, sp, #8
 179              		.cfi_def_cfa_offset 32
  66:main.c        ****     CyGlobalIntEnable;
 180              		.loc 1 66 0
 181              		.syntax divided
 182              	@ 66 "main.c" 1
 183 0008 62B6     		CPSIE   i
 184              	@ 0 "" 2
  67:main.c        ****     Status_Reg_LIM_InterruptEnable();
 185              		.loc 1 67 0
 186              		.thumb
 187              		.syntax unified
 188 000a FFF7FEFF 		bl	Status_Reg_LIM_InterruptEnable
 189              	.LVL8:
  68:main.c        ****     isr_LIM_StartEx(Limit_Handler);
 190              		.loc 1 68 0
 191 000e CA48     		ldr	r0, .L31
 192 0010 FFF7FEFF 		bl	isr_LIM_StartEx
 193              	.LVL9:
  69:main.c        ****     CC2_isr_StartEx(Enc2_Handler);
 194              		.loc 1 69 0
 195 0014 C948     		ldr	r0, .L31+4
 196 0016 FFF7FEFF 		bl	CC2_isr_StartEx
 197              	.LVL10:
  70:main.c        ****     isr_LEDs_StartEx(LED_Timer_Handler);
 198              		.loc 1 70 0
 199 001a C948     		ldr	r0, .L31+8
 200 001c FFF7FEFF 		bl	isr_LEDs_StartEx
 201              	.LVL11:
  71:main.c        ****     
  72:main.c        ****     
  73:main.c        ****     //wip
  74:main.c        ****     //isr_sensor_StartEx(Sensor_Handler);
  75:main.c        ****     
  76:main.c        ****     /* Place your initialization/startup code here (e.g. MyInst_Start()) */
  77:main.c        ****     InitCAN(DEVICE_GROUP_SCIENCE, 0x1); //1 because only 1 science board
 202              		.loc 1 77 0
 203 0020 0121     		movs	r1, #1
 204 0022 0720     		movs	r0, #7
 205 0024 FFF7FEFF 		bl	InitCAN
 206              	.LVL12:
  78:main.c        ****     ADC_Start();
ARM GAS  C:\Users\mewin\AppData\Local\Temp\cc3iSe65.s 			page 6


 207              		.loc 1 78 0
 208 0028 FFF7FEFF 		bl	ADC_Start
 209              	.LVL13:
  79:main.c        ****     pca_init();
 210              		.loc 1 79 0
 211 002c FFF7FEFF 		bl	pca_init
 212              	.LVL14:
  80:main.c        ****     Timer_LEDs_Start();
 213              		.loc 1 80 0
 214 0030 FFF7FEFF 		bl	Timer_LEDs_Start
 215              	.LVL15:
  81:main.c        ****     Timer_1ms_Start();
 216              		.loc 1 81 0
 217 0034 FFF7FEFF 		bl	Timer_1ms_Start
 218              	.LVL16:
  82:main.c        ****     QuadDec_1_Start();
 219              		.loc 1 82 0
 220 0038 FFF7FEFF 		bl	QuadDec_1_Start
 221              	.LVL17:
  83:main.c        ****     QuadDec_2_Start();
 222              		.loc 1 83 0
 223 003c FFF7FEFF 		bl	QuadDec_2_Start
 224              	.LVL18:
  84:main.c        ****     //set index trigger
  85:main.c        ****     QuadDec_2_TriggerCommand(QuadDec_2_MASK, QuadDec_2_CMD_RELOAD);
 225              		.loc 1 85 0
 226 0040 0821     		movs	r1, #8
 227 0042 0220     		movs	r0, #2
 228 0044 FFF7FEFF 		bl	QuadDec_2_TriggerCommand
 229              	.LVL19:
  86:main.c        ****     
  87:main.c        ****     UART_Start();
 230              		.loc 1 87 0
 231 0048 FFF7FEFF 		bl	UART_Start
 232              	.LVL20:
  88:main.c        ****     VEML6070_init();
 233              		.loc 1 88 0
 234 004c FFF7FEFF 		bl	VEML6070_init
 235              	.LVL21:
  89:main.c        ****     reset_servo_cont();
 236              		.loc 1 89 0
 237 0050 FFF7FEFF 		bl	reset_servo_cont
 238              	.LVL22:
  90:main.c        ****     time_ms = 0;
 239              		.loc 1 90 0
 240 0054 0024     		movs	r4, #0
 241 0056 BB4B     		ldr	r3, .L31+12
 242 0058 1C60     		str	r4, [r3]
  91:main.c        ****     
  92:main.c        ****     // lazy susan load regs 
  93:main.c        ****     encoder_val = QuadDec_2_ReadCounter();
 243              		.loc 1 93 0
 244 005a FFF7FEFF 		bl	QuadDec_2_ReadCounter
 245              	.LVL23:
 246 005e BA4B     		ldr	r3, .L31+16
 247 0060 1860     		str	r0, [r3]
  94:main.c        ****     target_encoder_val = encoder_val; //TODO: verify
ARM GAS  C:\Users\mewin\AppData\Local\Temp\cc3iSe65.s 			page 7


 248              		.loc 1 94 0
 249 0062 FFF7FEFF 		bl	__aeabi_i2d
 250              	.LVL24:
 251 0066 B94B     		ldr	r3, .L31+20
 252 0068 1860     		str	r0, [r3]
 253 006a 5960     		str	r1, [r3, #4]
  95:main.c        ****     ideal_encoder_val = encoder_val;
 254              		.loc 1 95 0
 255 006c B84B     		ldr	r3, .L31+24
 256 006e 1860     		str	r0, [r3]
 257 0070 5960     		str	r1, [r3, #4]
  96:main.c        ****     target_cup_pos = 0;
 258              		.loc 1 96 0
 259 0072 B84B     		ldr	r3, .L31+28
 260 0074 1C70     		strb	r4, [r3]
  97:main.c        ****     first_cup_pos = 0;
 261              		.loc 1 97 0
 262 0076 B84B     		ldr	r3, .L31+32
 263 0078 1C70     		strb	r4, [r3]
  98:main.c        ****     has_moved = 0;
 264              		.loc 1 98 0
 265 007a B84B     		ldr	r3, .L31+36
 266 007c 1C70     		strb	r4, [r3]
  99:main.c        ****     moving = 0;
 267              		.loc 1 99 0
 268 007e B84B     		ldr	r3, .L31+40
 269 0080 1C70     		strb	r4, [r3]
 100:main.c        ****     curr_power = 0;
 270              		.loc 1 100 0
 271 0082 B84B     		ldr	r3, .L31+44
 272 0084 1C60     		str	r4, [r3]
 101:main.c        ****     
 102:main.c        ****     ERR_LED_Write(0);
 273              		.loc 1 102 0
 274 0086 0020     		movs	r0, #0
 275 0088 FFF7FEFF 		bl	ERR_LED_Write
 276              	.LVL25:
 277              	.L18:
 278              	.LBB2:
 103:main.c        ****     
 104:main.c        ****     
 105:main.c        ****     //test
 106:main.c        **** 
 107:main.c        ****     for(;;)
 108:main.c        ****     {      
 109:main.c        ****         
 110:main.c        ****         
 111:main.c        ****         //testing
 112:main.c        ****         
 113:main.c        ****     /* * * * * * * * * * * * * * * * * * * * * * * * * * * * * * * * *
 114:main.c        ****      * * * * * * * * * * E N C O D E R _ T E S T I N G * * * * * * * *
 115:main.c        ****      * * * * * * * * * * * * * * * * * * * * * * * * * * * * * * * * */        
 116:main.c        **** //        uint32 count = QuadDec_2_ReadCounter();
 117:main.c        **** //        char out_enc[32];        uint32_t value = QuadDec_2_ReadCounter();
 118:main.c        **** //        UART_UartPutString("Encoder Value: ");
 119:main.c        **** //        UART_UartPutString(itoa(value, out_enc, 10));
 120:main.c        **** //        UART_UartPutString(", ");
ARM GAS  C:\Users\mewin\AppData\Local\Temp\cc3iSe65.s 			page 8


 121:main.c        ****         
 122:main.c        ****         
 123:main.c        ****         //UART_UartPutString("\n\r");
 124:main.c        ****         
 125:main.c        ****         
 126:main.c        ****     
 127:main.c        ****         //LEDs
 128:main.c        ****        /* for(int i = 1; i <=5; ++i){
 129:main.c        ****             DBG_LED_Write(1);
 130:main.c        ****             CyDelay(300);
 131:main.c        ****             DBG_LED_Write(0);
 132:main.c        ****             CyDelay(300);
 133:main.c        ****         } */
 134:main.c        ****         
 135:main.c        ****     /* * * * * * * * * * * * * * * * * * * * * * * * * * * * * * * * *
 136:main.c        ****      * * * * * * * * * * S E N S O R _ T E S T I N G * * * * * * * * *
 137:main.c        ****      * * * * * * * * * * * * * * * * * * * * * * * * * * * * * * * * */  
 138:main.c        **** //        uint32_t Hum_val = read_ADC(0);
 139:main.c        **** //        ADC_StartConvert();
 140:main.c        **** //        char out[32];
 141:main.c        **** //        UART_UartPutString("Humidity Value: ");
 142:main.c        **** //        UART_UartPutString(itoa(Hum_val, out, 10));
 143:main.c        **** //        UART_UartPutString(", ");
 144:main.c        **** //        char out3[32];
 145:main.c        **** //        UART_UartPutString("target encval: ");
 146:main.c        **** //        UART_UartPutString(itoa(target_encoder_val, out3, 10));
 147:main.c        **** //        UART_UartPutString("\n\r");
 148:main.c        **** //        CyDelay(100);
 149:main.c        ****         
 150:main.c        ****         //uint32_t Temp_val = read_ADC(1);
 151:main.c        **** //        VEML6070_init();
 152:main.c        **** //        uint32_t sensor_val = read_uv_sensor(); 
 153:main.c        ****         //char out[32];
 154:main.c        ****         //show results
 155:main.c        **** //        UART_UartPutString(itoa(Hum_val, out1, 10));
 156:main.c        ****         //UART_UartPutString("\n\r");
 157:main.c        **** //        UART_UartPutString(itoa(Temp_val, out1, 10));
 158:main.c        **** //        //uart_uartputstring(itoa(sensor_val, out, 10));
 159:main.c        **** //        UART_UartPutString("bababooey");
 160:main.c        **** //        UART_UartPutString("\n\r");
 161:main.c        **** //        
 162:main.c        **** //        int servo = 7;
 163:main.c        **** //        int degrees = 31;
 164:main.c        ****         //setPWMFromDutyCycle(15, 7);
 165:main.c        **** //        setPWMFromDutyCycle(9, 30);
 166:main.c        **** 
 167:main.c        ****     /* * * * * * * * * * * * * * * * * * * * * * * * * * * * * * * * *
 168:main.c        ****      * * * * * * * * O P E R A T I O N A L _ C O D E * * * * * * * * *
 169:main.c        ****      * * * * * * * * * * * * * * * * * * * * * * * * * * * * * * * * */
 170:main.c        ****         
 171:main.c        ****         // update encoder 
 172:main.c        ****         encoder_val = QuadDec_2_ReadCounter();
 279              		.loc 1 172 0
 280 008c FFF7FEFF 		bl	QuadDec_2_ReadCounter
 281              	.LVL26:
 282 0090 0400     		movs	r4, r0
 283 0092 AD4B     		ldr	r3, .L31+16
ARM GAS  C:\Users\mewin\AppData\Local\Temp\cc3iSe65.s 			page 9


 284 0094 1860     		str	r0, [r3]
 173:main.c        ****         
 174:main.c        ****         // check lazy susan movement
 175:main.c        ****         if (moving && (((curr_power > 0) && (encoder_val >= round(target_encoder_val))) 
 285              		.loc 1 175 0
 286 0096 B24B     		ldr	r3, .L31+40
 287 0098 1B78     		ldrb	r3, [r3]
 288 009a 002B     		cmp	r3, #0
 289 009c 39D0     		beq	.L13
 290              		.loc 1 175 0 is_stmt 0 discriminator 1
 291 009e B14B     		ldr	r3, .L31+44
 292 00a0 1D68     		ldr	r5, [r3]
 293 00a2 002D     		cmp	r5, #0
 294 00a4 10DD     		ble	.L14
 295              		.loc 1 175 0 discriminator 2
 296 00a6 FFF7FEFF 		bl	__aeabi_i2d
 297              	.LVL27:
 298 00aa 0600     		movs	r6, r0
 299 00ac 0F00     		movs	r7, r1
 300 00ae A74B     		ldr	r3, .L31+20
 301 00b0 1868     		ldr	r0, [r3]
 302 00b2 5968     		ldr	r1, [r3, #4]
 303 00b4 FFF7FEFF 		bl	round
 304              	.LVL28:
 305 00b8 0200     		movs	r2, r0
 306 00ba 0B00     		movs	r3, r1
 307 00bc 3000     		movs	r0, r6
 308 00be 3900     		movs	r1, r7
 309 00c0 FFF7FEFF 		bl	__aeabi_dcmpge
 310              	.LVL29:
 311 00c4 0028     		cmp	r0, #0
 312 00c6 13D1     		bne	.L15
 313              	.L14:
 176:main.c        ****                          || ((curr_power < 0) &&  (encoder_val <= round(target_encoder_val))))) {
 314              		.loc 1 176 0 is_stmt 1
 315 00c8 002D     		cmp	r5, #0
 316 00ca 22DA     		bge	.L13
 317              		.loc 1 176 0 is_stmt 0 discriminator 1
 318 00cc 2000     		movs	r0, r4
 319 00ce FFF7FEFF 		bl	__aeabi_i2d
 320              	.LVL30:
 321 00d2 0600     		movs	r6, r0
 322 00d4 0F00     		movs	r7, r1
 323 00d6 9D4B     		ldr	r3, .L31+20
 324 00d8 1868     		ldr	r0, [r3]
 325 00da 5968     		ldr	r1, [r3, #4]
 326 00dc FFF7FEFF 		bl	round
 327              	.LVL31:
 328 00e0 0200     		movs	r2, r0
 329 00e2 0B00     		movs	r3, r1
 330 00e4 3000     		movs	r0, r6
 331 00e6 3900     		movs	r1, r7
 332 00e8 FFF7FEFF 		bl	__aeabi_dcmple
 333              	.LVL32:
 334 00ec 0028     		cmp	r0, #0
 335 00ee 10D0     		beq	.L13
 336              	.L15:
ARM GAS  C:\Users\mewin\AppData\Local\Temp\cc3iSe65.s 			page 10


 177:main.c        ****             set_servo_continuous(0, 0);
 337              		.loc 1 177 0 is_stmt 1
 338 00f0 0021     		movs	r1, #0
 339 00f2 0020     		movs	r0, #0
 340 00f4 FFF7FEFF 		bl	set_servo_continuous
 341              	.LVL33:
 178:main.c        ****             moving = 0;
 342              		.loc 1 178 0
 343 00f8 0022     		movs	r2, #0
 344 00fa 994B     		ldr	r3, .L31+40
 345 00fc 1A70     		strb	r2, [r3]
 179:main.c        ****             first_cup_pos = target_cup_pos;
 346              		.loc 1 179 0
 347 00fe 954B     		ldr	r3, .L31+28
 348 0100 1A78     		ldrb	r2, [r3]
 349 0102 954B     		ldr	r3, .L31+32
 350 0104 1A70     		strb	r2, [r3]
 180:main.c        ****             ideal_encoder_val = target_encoder_val;
 351              		.loc 1 180 0
 352 0106 914B     		ldr	r3, .L31+20
 353 0108 1868     		ldr	r0, [r3]
 354 010a 5968     		ldr	r1, [r3, #4]
 355 010c 904B     		ldr	r3, .L31+24
 356 010e 1860     		str	r0, [r3]
 357 0110 5960     		str	r1, [r3, #4]
 358              	.L13:
 181:main.c        ****         }
 182:main.c        ****         char out4[32];
 183:main.c        **** //        UART_UartPutString("ms: ");
 184:main.c        **** //        UART_UartPutString(itoa(milliseconds, out4, 10));
 185:main.c        **** //        UART_UartPutString(", time_ms: ");
 186:main.c        **** //        UART_UartPutString(itoa(time_ms, out4, 10));
 187:main.c        **** //        UART_UartPutString("\n\r");
 188:main.c        ****         volatile int error = PollAndReceiveCANPacket(&current); 
 359              		.loc 1 188 0
 360 0112 9548     		ldr	r0, .L31+48
 361 0114 FFF7FEFF 		bl	PollAndReceiveCANPacket
 362              	.LVL34:
 363 0118 0190     		str	r0, [sp, #4]
 189:main.c        ****         
 190:main.c        ****         // when the compare time is greater than 0 and the current milliseconds is greater than
 191:main.c        ****         // or equal to the compare time, we send sensor data.
 192:main.c        ****         if (milliseconds > time_ms) {
 364              		.loc 1 192 0
 365 011a 944B     		ldr	r3, .L31+52
 366 011c 1A68     		ldr	r2, [r3]
 367 011e 894B     		ldr	r3, .L31+12
 368 0120 1B68     		ldr	r3, [r3]
 369 0122 9A42     		cmp	r2, r3
 370 0124 04D9     		bls	.L17
 193:main.c        ****             milliseconds = 0;
 371              		.loc 1 193 0
 372 0126 0022     		movs	r2, #0
 373 0128 904B     		ldr	r3, .L31+52
 374 012a 1A60     		str	r2, [r3]
 194:main.c        ****             periodicSend();
 375              		.loc 1 194 0
ARM GAS  C:\Users\mewin\AppData\Local\Temp\cc3iSe65.s 			page 11


 376 012c FFF7FEFF 		bl	periodicSend
 377              	.LVL35:
 378              	.L17:
 195:main.c        ****         }
 196:main.c        ****         
 197:main.c        ****         if (!error) {  // packet on 0
 379              		.loc 1 197 0
 380 0130 019B     		ldr	r3, [sp, #4]
 381 0132 002B     		cmp	r3, #0
 382 0134 AAD1     		bne	.L18
 383              	.LBB3:
 198:main.c        ****             CAN_LED_Write(LED_ON); //on+
 384              		.loc 1 198 0
 385 0136 0120     		movs	r0, #1
 386 0138 FFF7FEFF 		bl	CAN_LED_Write
 387              	.LVL36:
 199:main.c        ****             CAN_time_LED = 0;
 388              		.loc 1 199 0
 389 013c 0022     		movs	r2, #0
 390 013e 8C4B     		ldr	r3, .L31+56
 391 0140 1A70     		strb	r2, [r3]
 200:main.c        ****             int ID = GetPacketID(&current);
 392              		.loc 1 200 0
 393 0142 8948     		ldr	r0, .L31+48
 394 0144 FFF7FEFF 		bl	GetPacketID
 395              	.LVL37:
 201:main.c        ****             switch (ID) {
 396              		.loc 1 201 0
 397 0148 0E28     		cmp	r0, #14
 398 014a 00D1     		bne	.LCB282
 399 014c D5E0     		b	.L19	@long jump
 400              	.LCB282:
 401 014e 05DC     		bgt	.L20
 402 0150 0C28     		cmp	r0, #12
 403 0152 0AD0     		beq	.L21
 404 0154 0D28     		cmp	r0, #13
 405 0156 00D1     		bne	.LCB288
 406 0158 BCE0     		b	.L22	@long jump
 407              	.LCB288:
 408 015a 97E7     		b	.L18
 409              	.L20:
 410 015c F428     		cmp	r0, #244
 411 015e 00D1     		bne	.LCB294
 412 0160 A4E0     		b	.L23	@long jump
 413              	.LCB294:
 414 0162 F528     		cmp	r0, #245
 415 0164 00D1     		bne	.LCB296
 416 0166 D4E0     		b	.L24	@long jump
 417              	.LCB296:
 418 0168 90E7     		b	.L18
 419              	.L21:
 202:main.c        ****                 case ID_SCIENCE_LAZY_SUSAN_POS_SET : //pos set on lazy susan
 203:main.c        ****                     {
 204:main.c        ****                         UART_UartPutString("enter ");
 420              		.loc 1 204 0
 421 016a 8248     		ldr	r0, .L31+60
 422              	.LVL38:
ARM GAS  C:\Users\mewin\AppData\Local\Temp\cc3iSe65.s 			page 12


 423 016c FFF7FEFF 		bl	UART_UartPutString
 424              	.LVL39:
 205:main.c        ****                         UART_UartPutString("\n\r");
 425              		.loc 1 205 0
 426 0170 8148     		ldr	r0, .L31+64
 427 0172 FFF7FEFF 		bl	UART_UartPutString
 428              	.LVL40:
 206:main.c        ****                         //CAN_LED_Write(0);
 207:main.c        ****                         target_cup_pos = GetScienceLazySusanPosFromPacket(&current);
 429              		.loc 1 207 0
 430 0176 7C48     		ldr	r0, .L31+48
 431 0178 FFF7FEFF 		bl	GetScienceLazySusanPosFromPacket
 432              	.LVL41:
 433 017c 0400     		movs	r4, r0
 434 017e 46B2     		sxtb	r6, r0
 435 0180 744B     		ldr	r3, .L31+28
 436 0182 1E70     		strb	r6, [r3]
 208:main.c        ****                         // first move
 209:main.c        ****                         if (!has_moved) {
 437              		.loc 1 209 0
 438 0184 754B     		ldr	r3, .L31+36
 439 0186 1B78     		ldrb	r3, [r3]
 440 0188 002B     		cmp	r3, #0
 441 018a 0CD1     		bne	.L25
 210:main.c        ****                             first_cup_pos = 0;
 442              		.loc 1 210 0
 443 018c 0022     		movs	r2, #0
 444 018e 724B     		ldr	r3, .L31+32
 445 0190 1A70     		strb	r2, [r3]
 211:main.c        ****                             ideal_encoder_val = encoder_val; // load first cup starting pos (cup cl
 446              		.loc 1 211 0
 447 0192 6D4B     		ldr	r3, .L31+16
 448 0194 1868     		ldr	r0, [r3]
 449 0196 FFF7FEFF 		bl	__aeabi_i2d
 450              	.LVL42:
 451 019a 6D4B     		ldr	r3, .L31+24
 452 019c 1860     		str	r0, [r3]
 453 019e 5960     		str	r1, [r3, #4]
 212:main.c        ****                             has_moved = 1;
 454              		.loc 1 212 0
 455 01a0 0122     		movs	r2, #1
 456 01a2 6E4B     		ldr	r3, .L31+36
 457 01a4 1A70     		strb	r2, [r3]
 458              	.L25:
 213:main.c        ****                         }
 214:main.c        ****                         if (first_cup_pos == target_cup_pos) break;
 459              		.loc 1 214 0
 460 01a6 6C4B     		ldr	r3, .L31+32
 461 01a8 1B78     		ldrb	r3, [r3]
 462 01aa 5BB2     		sxtb	r3, r3
 463 01ac 9E42     		cmp	r6, r3
 464 01ae 00D1     		bne	.LCB337
 465 01b0 6CE7     		b	.L18	@long jump
 466              	.LCB337:
 215:main.c        ****                         if (!moving) {
 467              		.loc 1 215 0
 468 01b2 6B4A     		ldr	r2, .L31+40
ARM GAS  C:\Users\mewin\AppData\Local\Temp\cc3iSe65.s 			page 13


 469 01b4 1278     		ldrb	r2, [r2]
 470 01b6 002A     		cmp	r2, #0
 471 01b8 00D0     		beq	.LCB341
 472 01ba 67E7     		b	.L18	@long jump
 473              	.LCB341:
 474              	.LBB4:
 216:main.c        ****                             int8_t next_pow;
 217:main.c        ****                             int8_t diff = target_cup_pos - first_cup_pos;
 475              		.loc 1 217 0
 476 01bc E41A     		subs	r4, r4, r3
 477 01be 64B2     		sxtb	r4, r4
 478              	.LVL43:
 218:main.c        ****                             int8_t sum = target_cup_pos + first_cup_pos + 1; // plus 1 because zero
 219:main.c        ****                             if (diff > 0) {
 479              		.loc 1 219 0
 480 01c0 002C     		cmp	r4, #0
 481 01c2 31DD     		ble	.L26
 220:main.c        ****                                 if (diff > 5) {  // if "far" we go other direction
 482              		.loc 1 220 0
 483 01c4 052C     		cmp	r4, #5
 484 01c6 1BDD     		ble	.L27
 221:main.c        ****                                     UART_UartPutString("case 1\r\n");
 485              		.loc 1 221 0
 486 01c8 6C48     		ldr	r0, .L31+68
 487 01ca FFF7FEFF 		bl	UART_UartPutString
 488              	.LVL44:
 222:main.c        ****                                     next_pow = -5;  // TODO: may have to reverse
 223:main.c        ****                                     target_encoder_val = ideal_encoder_val - ((11 - target_cup_pos 
 489              		.loc 1 223 0
 490 01ce 614B     		ldr	r3, .L31+28
 491 01d0 0020     		movs	r0, #0
 492 01d2 1856     		ldrsb	r0, [r3, r0]
 493 01d4 0C23     		movs	r3, #12
 494 01d6 181A     		subs	r0, r3, r0
 495 01d8 FFF7FEFF 		bl	__aeabi_i2d
 496              	.LVL45:
 497 01dc 684A     		ldr	r2, .L31+72
 498 01de 694B     		ldr	r3, .L31+76
 499 01e0 FFF7FEFF 		bl	__aeabi_dmul
 500              	.LVL46:
 501 01e4 0200     		movs	r2, r0
 502 01e6 0B00     		movs	r3, r1
 503 01e8 5949     		ldr	r1, .L31+24
 504 01ea 0868     		ldr	r0, [r1]
 505 01ec 4968     		ldr	r1, [r1, #4]
 506 01ee FFF7FEFF 		bl	__aeabi_dsub
 507              	.LVL47:
 508 01f2 564B     		ldr	r3, .L31+20
 509 01f4 1860     		str	r0, [r3]
 510 01f6 5960     		str	r1, [r3, #4]
 222:main.c        ****                                     next_pow = -5;  // TODO: may have to reverse
 511              		.loc 1 222 0
 512 01f8 0523     		movs	r3, #5
 513 01fa 5B42     		rsbs	r3, r3, #0
 514 01fc 9846     		mov	r8, r3
 515 01fe 13E0     		b	.L26
 516              	.LVL48:
ARM GAS  C:\Users\mewin\AppData\Local\Temp\cc3iSe65.s 			page 14


 517              	.L27:
 224:main.c        ****                                 } else {
 225:main.c        ****                                     UART_UartPutString("case 2\r\n");
 518              		.loc 1 225 0
 519 0200 6148     		ldr	r0, .L31+80
 520 0202 FFF7FEFF 		bl	UART_UartPutString
 521              	.LVL49:
 226:main.c        ****                                     next_pow = 3;
 227:main.c        ****                                     target_encoder_val = ideal_encoder_val + (diff * 6.67);
 522              		.loc 1 227 0
 523 0206 2000     		movs	r0, r4
 524 0208 FFF7FEFF 		bl	__aeabi_i2d
 525              	.LVL50:
 526 020c 5C4A     		ldr	r2, .L31+72
 527 020e 5D4B     		ldr	r3, .L31+76
 528 0210 FFF7FEFF 		bl	__aeabi_dmul
 529              	.LVL51:
 530 0214 4E4B     		ldr	r3, .L31+24
 531 0216 1A68     		ldr	r2, [r3]
 532 0218 5B68     		ldr	r3, [r3, #4]
 533 021a FFF7FEFF 		bl	__aeabi_dadd
 534              	.LVL52:
 535 021e 4B4B     		ldr	r3, .L31+20
 536 0220 1860     		str	r0, [r3]
 537 0222 5960     		str	r1, [r3, #4]
 226:main.c        ****                                     next_pow = 3;
 538              		.loc 1 226 0
 539 0224 0323     		movs	r3, #3
 540 0226 9846     		mov	r8, r3
 541              	.LVL53:
 542              	.L26:
 228:main.c        ****                                 }
 229:main.c        ****                             }
 230:main.c        ****                             if (diff < 0) {
 543              		.loc 1 230 0
 544 0228 002C     		cmp	r4, #0
 545 022a 34DA     		bge	.L28
 231:main.c        ****                                 if (diff < -5) {
 546              		.loc 1 231 0
 547 022c 631D     		adds	r3, r4, #5
 548 022e 1DDA     		bge	.L29
 232:main.c        ****                                     UART_UartPutString("case 3\r\n");
 549              		.loc 1 232 0
 550 0230 5648     		ldr	r0, .L31+84
 551 0232 FFF7FEFF 		bl	UART_UartPutString
 552              	.LVL54:
 233:main.c        ****                                     next_pow = 3;
 234:main.c        ****                                     target_encoder_val = ideal_encoder_val + (11 - first_cup_pos + 
 553              		.loc 1 234 0
 554 0236 484B     		ldr	r3, .L31+32
 555 0238 0020     		movs	r0, #0
 556 023a 1856     		ldrsb	r0, [r3, r0]
 557 023c 0B23     		movs	r3, #11
 558 023e 1B1A     		subs	r3, r3, r0
 559 0240 444A     		ldr	r2, .L31+28
 560 0242 0020     		movs	r0, #0
 561 0244 1056     		ldrsb	r0, [r2, r0]
ARM GAS  C:\Users\mewin\AppData\Local\Temp\cc3iSe65.s 			page 15


 562 0246 C018     		adds	r0, r0, r3
 563 0248 0130     		adds	r0, r0, #1
 564 024a FFF7FEFF 		bl	__aeabi_i2d
 565              	.LVL55:
 566 024e 4C4A     		ldr	r2, .L31+72
 567 0250 4C4B     		ldr	r3, .L31+76
 568 0252 FFF7FEFF 		bl	__aeabi_dmul
 569              	.LVL56:
 570 0256 3E4B     		ldr	r3, .L31+24
 571 0258 1A68     		ldr	r2, [r3]
 572 025a 5B68     		ldr	r3, [r3, #4]
 573 025c FFF7FEFF 		bl	__aeabi_dadd
 574              	.LVL57:
 575 0260 3A4B     		ldr	r3, .L31+20
 576 0262 1860     		str	r0, [r3]
 577 0264 5960     		str	r1, [r3, #4]
 233:main.c        ****                                     next_pow = 3;
 578              		.loc 1 233 0
 579 0266 0323     		movs	r3, #3
 580 0268 9846     		mov	r8, r3
 581 026a 14E0     		b	.L28
 582              	.LVL58:
 583              	.L29:
 235:main.c        ****                                 } else {
 236:main.c        ****                                     UART_UartPutString("case 4\r\n");
 584              		.loc 1 236 0
 585 026c 4848     		ldr	r0, .L31+88
 586 026e FFF7FEFF 		bl	UART_UartPutString
 587              	.LVL59:
 237:main.c        ****                                     next_pow = -5;
 238:main.c        ****                                     target_encoder_val = ideal_encoder_val + (diff * 6.67);  // TOD
 588              		.loc 1 238 0
 589 0272 2000     		movs	r0, r4
 590 0274 FFF7FEFF 		bl	__aeabi_i2d
 591              	.LVL60:
 592 0278 414A     		ldr	r2, .L31+72
 593 027a 424B     		ldr	r3, .L31+76
 594 027c FFF7FEFF 		bl	__aeabi_dmul
 595              	.LVL61:
 596 0280 334B     		ldr	r3, .L31+24
 597 0282 1A68     		ldr	r2, [r3]
 598 0284 5B68     		ldr	r3, [r3, #4]
 599 0286 FFF7FEFF 		bl	__aeabi_dadd
 600              	.LVL62:
 601 028a 304B     		ldr	r3, .L31+20
 602 028c 1860     		str	r0, [r3]
 603 028e 5960     		str	r1, [r3, #4]
 237:main.c        ****                                     next_pow = -5;
 604              		.loc 1 237 0
 605 0290 0523     		movs	r3, #5
 606 0292 5B42     		rsbs	r3, r3, #0
 607 0294 9846     		mov	r8, r3
 608              	.LVL63:
 609              	.L28:
 239:main.c        ****                                 }
 240:main.c        ****                             }
 241:main.c        ****                             moving = 1;
ARM GAS  C:\Users\mewin\AppData\Local\Temp\cc3iSe65.s 			page 16


 610              		.loc 1 241 0
 611 0296 0122     		movs	r2, #1
 612 0298 314B     		ldr	r3, .L31+40
 613 029a 1A70     		strb	r2, [r3]
 242:main.c        ****                             set_servo_continuous(LAZY_SUSAN_ID, next_pow); // check servo num
 614              		.loc 1 242 0
 615 029c 4146     		mov	r1, r8
 616 029e 0020     		movs	r0, #0
 617 02a0 FFF7FEFF 		bl	set_servo_continuous
 618              	.LVL64:
 243:main.c        ****                             curr_power = next_pow;
 619              		.loc 1 243 0
 620 02a4 2F4B     		ldr	r3, .L31+44
 621 02a6 4246     		mov	r2, r8
 622 02a8 1A60     		str	r2, [r3]
 623 02aa EFE6     		b	.L18
 624              	.LVL65:
 625              	.L23:
 626              	.LBE4:
 627              	.LBB5:
 244:main.c        ****                         } // dont process packet if moving
 245:main.c        **** //                        uint8_t goal_cup_pos = GetScienceLazySusanPosFromPacket(current);
 246:main.c        ****                         //uint32_t tick_goal = QuadDec_2_ReadCounter() + cups_forward(goal_cup_pos,
 247:main.c        ****                     }
 248:main.c        ****                     break;
 249:main.c        ****                 case ID_TELEMETRY_TIMING : //wip
 250:main.c        ****                     {
 251:main.c        ****                         // CAN_LED_Write(0); 
 252:main.c        ****                         // the enableInterrupts variable saves the current interrupt 
 253:main.c        ****                         // masking state inside the cpu registers. We pause interrupts
 254:main.c        ****                         // so that it does not interfere with the reading of 32 bits
 255:main.c        ****                         uint8 enableInterrupts = CyEnterCriticalSection();
 628              		.loc 1 255 0
 629 02ac FFF7FEFF 		bl	CyEnterCriticalSection
 630              	.LVL66:
 631 02b0 0600     		movs	r6, r0
 632              	.LVL67:
 256:main.c        ****                         time_ms = GetTelemetryTimingFromPacket(&current);
 633              		.loc 1 256 0
 634 02b2 2D48     		ldr	r0, .L31+48
 635 02b4 FFF7FEFF 		bl	GetTelemetryTimingFromPacket
 636              	.LVL68:
 637 02b8 224C     		ldr	r4, .L31+12
 638 02ba 2060     		str	r0, [r4]
 257:main.c        ****                         // restore the interrupt masking state
 258:main.c        ****                         CyExitCriticalSection(enableInterrupts);
 639              		.loc 1 258 0
 640 02bc 3000     		movs	r0, r6
 641 02be FFF7FEFF 		bl	CyExitCriticalSection
 642              	.LVL69:
 259:main.c        ****                         // if compare time is not 0
 260:main.c        ****                         if (time_ms) {
 643              		.loc 1 260 0
 644 02c2 2368     		ldr	r3, [r4]
 645 02c4 002B     		cmp	r3, #0
 646 02c6 02D0     		beq	.L30
 261:main.c        ****                             // start millisecond counter
ARM GAS  C:\Users\mewin\AppData\Local\Temp\cc3iSe65.s 			page 17


 262:main.c        ****                             init_milliseconds();
 647              		.loc 1 262 0
 648 02c8 FFF7FEFF 		bl	init_milliseconds
 649              	.LVL70:
 650 02cc DEE6     		b	.L18
 651              	.L30:
 263:main.c        ****                         } else {
 264:main.c        ****                             // stop millisecond counter
 265:main.c        ****                             isr_1ms_Stop();
 652              		.loc 1 265 0
 653 02ce FFF7FEFF 		bl	isr_1ms_Stop
 654              	.LVL71:
 655 02d2 DBE6     		b	.L18
 656              	.LVL72:
 657              	.L22:
 658              	.LBE5:
 659              	.LBB6:
 266:main.c        ****                         }
 267:main.c        ****                         //CAN_LED_Write(1);
 268:main.c        ****                     }
 269:main.c        ****                     break;
 270:main.c        ****                 case ID_SCIENCE_SERVO_SET : //servo set 
 271:main.c        ****                     {   
 272:main.c        ****                         CAN_LED_Write(1);
 660              		.loc 1 272 0
 661 02d4 0120     		movs	r0, #1
 662              	.LVL73:
 663 02d6 FFF7FEFF 		bl	CAN_LED_Write
 664              	.LVL74:
 273:main.c        ****                         //CyDelay(500);
 274:main.c        ****                         uint8_t servoID = GetScienceServoIDFromPacket(&current);
 665              		.loc 1 274 0
 666 02da 234C     		ldr	r4, .L31+48
 667 02dc 2000     		movs	r0, r4
 668 02de FFF7FEFF 		bl	GetScienceServoIDFromPacket
 669              	.LVL75:
 670 02e2 0600     		movs	r6, r0
 671              	.LVL76:
 275:main.c        ****                         uint8_t angle = GetScienceServoAngleFromPacket(&current);
 672              		.loc 1 275 0
 673 02e4 2000     		movs	r0, r4
 674 02e6 FFF7FEFF 		bl	GetScienceServoAngleFromPacket
 675              	.LVL77:
 676 02ea 0100     		movs	r1, r0
 677              	.LVL78:
 276:main.c        ****                         set_servo_position(servoID, angle);
 678              		.loc 1 276 0
 679 02ec 3000     		movs	r0, r6
 680 02ee FFF7FEFF 		bl	set_servo_position
 681              	.LVL79:
 277:main.c        ****                         //setPWMFromDutyCycle(7, (angle/180.0)*5 + 5); // TODO remove, map ids corr
 278:main.c        ****                         CAN_LED_Write(1);
 682              		.loc 1 278 0
 683 02f2 0120     		movs	r0, #1
 684 02f4 FFF7FEFF 		bl	CAN_LED_Write
 685              	.LVL80:
 686              	.LBE6:
ARM GAS  C:\Users\mewin\AppData\Local\Temp\cc3iSe65.s 			page 18


 279:main.c        ****                     }
 280:main.c        ****                     break;
 687              		.loc 1 280 0
 688 02f8 C8E6     		b	.L18
 689              	.LVL81:
 690              	.L19:
 691              	.LBB7:
 281:main.c        ****                 case ID_SCIENCE_CONT_SERVO_POWER_SET :
 282:main.c        ****                     {
 283:main.c        ****                         // CAN_LED_Write(0);
 284:main.c        ****                         // CyDelay(500);
 285:main.c        ****                         uint8_t servoID = GetScienceServoIDFromPacket(&current);
 692              		.loc 1 285 0
 693 02fa 1B4E     		ldr	r6, .L31+48
 694 02fc 3000     		movs	r0, r6
 695              	.LVL82:
 696 02fe FFF7FEFF 		bl	GetScienceServoIDFromPacket
 697              	.LVL83:
 698 0302 0400     		movs	r4, r0
 699              	.LVL84:
 286:main.c        ****                         // uint8_t miliDegrees = GetScienceServoAngleFromPacket(current);
 287:main.c        ****                         // tell davis SCUFFED CODE NOT IMPLEMENTED PLACEHOLDER
 288:main.c        ****                         uint8_t power = GetScienceContServoPowerFromPacket(&current);
 700              		.loc 1 288 0
 701 0304 3000     		movs	r0, r6
 702 0306 FFF7FEFF 		bl	GetScienceContServoPowerFromPacket
 703              	.LVL85:
 704 030a C1B2     		uxtb	r1, r0
 705              	.LVL86:
 289:main.c        ****                         set_servo_continuous(servoID, power);
 706              		.loc 1 289 0
 707 030c 2000     		movs	r0, r4
 708 030e FFF7FEFF 		bl	set_servo_continuous
 709              	.LVL87:
 710              	.L24:
 711              	.LBE7:
 712              	.LBB8:
 290:main.c        ****                         // CAN_LED_Write(1);
 291:main.c        ****                     }
 292:main.c        ****                 case ID_TELEMETRY_PULL : // sensor pull
 293:main.c        ****                     {
 294:main.c        ****                         // CAN_LED_Write(0);
 295:main.c        ****                         // CyDelay(500);
 296:main.c        ****                         uint8_t sensor_type = DecodeTelemetryType(&current);
 713              		.loc 1 296 0
 714 0312 154C     		ldr	r4, .L31+48
 715 0314 2000     		movs	r0, r4
 716 0316 FFF7FEFF 		bl	DecodeTelemetryType
 717              	.LVL88:
 718 031a 0600     		movs	r6, r0
 719              	.LVL89:
 297:main.c        ****                         uint8_t target_group = GetSenderDeviceGroupCode(&current);
 720              		.loc 1 297 0
 721 031c 2000     		movs	r0, r4
 722 031e FFF7FEFF 		bl	GetSenderDeviceGroupCode
 723              	.LVL90:
 724 0322 0700     		movs	r7, r0
ARM GAS  C:\Users\mewin\AppData\Local\Temp\cc3iSe65.s 			page 19


 725              	.LVL91:
 298:main.c        ****                         uint8_t target_serial = GetSenderDeviceSerialNumber(&current);
 726              		.loc 1 298 0
 727 0324 2000     		movs	r0, r4
 728 0326 FFF7FEFF 		bl	GetSenderDeviceSerialNumber
 729              	.LVL92:
 730 032a 0200     		movs	r2, r0
 731              	.LVL93:
 299:main.c        ****                         get_data(sensor_type, target_group, target_serial); // fetch sensor data wi
 732              		.loc 1 299 0
 733 032c 3900     		movs	r1, r7
 734 032e 3000     		movs	r0, r6
 735 0330 FFF7FEFF 		bl	get_data
 736              	.LVL94:
 737              	.LBE8:
 300:main.c        ****                         // CAN_LED_Write(1);
 301:main.c        ****                     }
 302:main.c        ****                     break;
 738              		.loc 1 302 0
 739 0334 AAE6     		b	.L18
 740              	.L32:
 741 0336 C046     		.align	2
 742              	.L31:
 743 0338 00000000 		.word	Limit_Handler
 744 033c 00000000 		.word	Enc2_Handler
 745 0340 00000000 		.word	LED_Timer_Handler
 746 0344 00000000 		.word	time_ms
 747 0348 00000000 		.word	encoder_val
 748 034c 00000000 		.word	target_encoder_val
 749 0350 00000000 		.word	ideal_encoder_val
 750 0354 00000000 		.word	target_cup_pos
 751 0358 00000000 		.word	first_cup_pos
 752 035c 00000000 		.word	has_moved
 753 0360 00000000 		.word	moving
 754 0364 00000000 		.word	curr_power
 755 0368 00000000 		.word	current
 756 036c 00000000 		.word	milliseconds
 757 0370 00000000 		.word	.LANCHOR0
 758 0374 00000000 		.word	.LC17
 759 0378 08000000 		.word	.LC19
 760 037c 0C000000 		.word	.LC21
 761 0380 AE47E17A 		.word	2061584302
 762 0384 14AE1A40 		.word	1075490324
 763 0388 18000000 		.word	.LC23
 764 038c 24000000 		.word	.LC25
 765 0390 30000000 		.word	.LC27
 766              	.LBE3:
 767              	.LBE2:
 768              		.cfi_endproc
 769              	.LFE37:
 770              		.size	main, .-main
 771              		.global	ERRORTimeLED
 772              		.global	CAN_time_LED
 773              		.comm	curr_power,4,4
 774              		.comm	moving,1,1
 775              		.comm	has_moved,1,1
 776              		.comm	target_encoder_val,8,8
ARM GAS  C:\Users\mewin\AppData\Local\Temp\cc3iSe65.s 			page 20


 777              		.comm	ideal_encoder_val,8,8
 778              		.comm	encoder_val,4,4
 779              		.comm	first_cup_pos,1,1
 780              		.comm	target_cup_pos,1,1
 781              		.comm	time_ms,4,4
 782              		.comm	current,12,4
 783              		.comm	can_send,12,4
 784              		.section	.rodata.str1.4,"aMS",%progbits,1
 785              		.align	2
 786              	.LC17:
 787 0000 656E7465 		.ascii	"enter \000"
 787      722000
 788 0007 00       		.space	1
 789              	.LC19:
 790 0008 0A0D00   		.ascii	"\012\015\000"
 791 000b 00       		.space	1
 792              	.LC21:
 793 000c 63617365 		.ascii	"case 1\015\012\000"
 793      20310D0A 
 793      00
 794 0015 000000   		.space	3
 795              	.LC23:
 796 0018 63617365 		.ascii	"case 2\015\012\000"
 796      20320D0A 
 796      00
 797 0021 000000   		.space	3
 798              	.LC25:
 799 0024 63617365 		.ascii	"case 3\015\012\000"
 799      20330D0A 
 799      00
 800 002d 000000   		.space	3
 801              	.LC27:
 802 0030 63617365 		.ascii	"case 4\015\012\000"
 802      20340D0A 
 802      00
 803              		.bss
 804              		.set	.LANCHOR0,. + 0
 805              		.type	CAN_time_LED, %object
 806              		.size	CAN_time_LED, 1
 807              	CAN_time_LED:
 808 0000 00       		.space	1
 809              		.type	ERRORTimeLED, %object
 810              		.size	ERRORTimeLED, 1
 811              	ERRORTimeLED:
 812 0001 00       		.space	1
 813              		.text
 814              	.Letext0:
 815              		.file 2 "c:\\program files (x86)\\cypress\\psoc creator\\4.4\\psoc creator\\import\\gnu\\arm\\5.4.
 816              		.file 3 "c:\\program files (x86)\\cypress\\psoc creator\\4.4\\psoc creator\\import\\gnu\\arm\\5.4.
 817              		.file 4 "Generated_Source\\PSoC4/cytypes.h"
 818              		.file 5 "..\\HindsightCAN-master/CANPacket.h"
 819              		.file 6 "Milliseconds.h"
 820              		.file 7 "Generated_Source\\PSoC4/QuadDec_2.h"
 821              		.file 8 "Generated_Source\\PSoC4/Status_Reg_LIM.h"
 822              		.file 9 "..\\HindsightCAN-master/CANMotorUnit.h"
 823              		.file 10 "..\\HindsightCAN-master/Port.h"
 824              		.file 11 "Generated_Source\\PSoC4/Timer_LEDs.h"
ARM GAS  C:\Users\mewin\AppData\Local\Temp\cc3iSe65.s 			page 21


 825              		.file 12 "Generated_Source\\PSoC4/ERR_LED.h"
 826              		.file 13 "Generated_Source\\PSoC4/DBG_LED.h"
 827              		.file 14 "Generated_Source\\PSoC4/CAN_LED.h"
 828              		.file 15 "Generated_Source\\PSoC4/UART_SPI_UART.h"
 829              		.file 16 "servo.h"
 830              		.file 17 "Generated_Source\\PSoC4/CyLib.h"
 831              		.file 18 "..\\HindsightCAN-master/CANCommon.h"
 832              		.file 19 "Generated_Source\\PSoC4/isr_1ms.h"
 833              		.file 20 "..\\HindsightCAN-master/CANScience.h"
 834              		.file 21 "sensor.h"
 835              		.file 22 "c:\\program files (x86)\\cypress\\psoc creator\\4.4\\psoc creator\\import\\gnu\\arm\\5.4
 836              		.file 23 "Generated_Source\\PSoC4/isr_LIM.h"
 837              		.file 24 "Generated_Source\\PSoC4/CC2_isr.h"
 838              		.file 25 "Generated_Source\\PSoC4/isr_LEDs.h"
 839              		.file 26 "Generated_Source\\PSoC4/ADC.h"
 840              		.file 27 "PCA9685.h"
 841              		.file 28 "Generated_Source\\PSoC4/Timer_1ms.h"
 842              		.file 29 "Generated_Source\\PSoC4/QuadDec_1.h"
 843              		.file 30 "Generated_Source\\PSoC4/UART.h"