ARM GAS  C:\Users\mewin\AppData\Local\Temp\ccd8OhvF.s 			page 1


   1              		.syntax unified
   2              		.cpu cortex-m0
   3              		.fpu softvfp
   4              		.eabi_attribute 20, 1
   5              		.eabi_attribute 21, 1
   6              		.eabi_attribute 23, 3
   7              		.eabi_attribute 24, 1
   8              		.eabi_attribute 25, 1
   9              		.eabi_attribute 26, 1
  10              		.eabi_attribute 30, 1
  11              		.eabi_attribute 34, 0
  12              		.eabi_attribute 18, 4
  13              		.thumb
  14              		.syntax unified
  15              		.file	"PCA9685.c"
  16              		.text
  17              	.Ltext0:
  18              		.cfi_sections	.debug_frame
  19              		.section	.text.TurnOnTimeL,"ax",%progbits
  20              		.align	2
  21              		.global	TurnOnTimeL
  22              		.code	16
  23              		.thumb_func
  24              		.type	TurnOnTimeL, %function
  25              	TurnOnTimeL:
  26              	.LFB36:
  27              		.file 1 "PCA9685.c"
   1:PCA9685.c     **** /* ========================================
   2:PCA9685.c     ****  *
   3:PCA9685.c     ****  * Driver for PCA9685
   4:PCA9685.c     ****  * 
   5:PCA9685.c     ****  * Name I2C Block in Top Design "I2C"
   6:PCA9685.c     ****  *
   7:PCA9685.c     ****  * Written by Dupri Chipman and Davis Sauer
   8:PCA9685.c     ****  * 
   9:PCA9685.c     ****  *
  10:PCA9685.c     ****  * ========================================
  11:PCA9685.c     **** */
  12:PCA9685.c     **** 
  13:PCA9685.c     **** #include "project.h"
  14:PCA9685.c     **** #include "PCA9685.h"
  15:PCA9685.c     **** 
  16:PCA9685.c     **** void pca_init(){
  17:PCA9685.c     ****     I2C_Start();
  18:PCA9685.c     ****     I2C_Enable();
  19:PCA9685.c     ****     
  20:PCA9685.c     ****     uint8 mode_buf[2] = {0,0b10010000}; // put to sleep (bit 4) to enable prescaler update
  21:PCA9685.c     ****     writeBuffer(mode_buf, PCA9685ADDY);
  22:PCA9685.c     ****     
  23:PCA9685.c     ****     uint8 freq_buf[2] = {254, 121};     // write to register 254 the magic num 121 to set 50hz pwm
  24:PCA9685.c     ****     writeBuffer(freq_buf, PCA9685ADDY);
  25:PCA9685.c     ****     
  26:PCA9685.c     ****     uint8 mode_buf2[2] = {0,0b10000000}; // unsleep to resume normal operation
  27:PCA9685.c     ****     writeBuffer(mode_buf2, PCA9685ADDY);
  28:PCA9685.c     **** }
  29:PCA9685.c     **** 
  30:PCA9685.c     **** /*Writes a single byte over i2c*/
ARM GAS  C:\Users\mewin\AppData\Local\Temp\ccd8OhvF.s 			page 2


  31:PCA9685.c     **** void writeByte(uint8 chip_register, uint8 value){
  32:PCA9685.c     ****      uint8 buf[2] = {chip_register, value};
  33:PCA9685.c     ****      writeBuffer(buf, PCA9685ADDY);
  34:PCA9685.c     **** }
  35:PCA9685.c     **** 
  36:PCA9685.c     **** 
  37:PCA9685.c     **** /*Casting delayTime as uint8_t gets rid of the four left most significant bits*/
  38:PCA9685.c     **** uint8 TurnOnTimeL(){
  28              		.loc 1 38 0
  29              		.cfi_startproc
  30              		@ args = 0, pretend = 0, frame = 0
  31              		@ frame_needed = 0, uses_anonymous_args = 0
  32              		@ link register save eliminated.
  33              	.LVL0:
  39:PCA9685.c     ****            int delayTime = DELAYTIME; /*This ammounts to 41 ticks before turn on*/
  40:PCA9685.c     ****            //dutyCycle = (4095*dutyCycle)/100;
  41:PCA9685.c     ****             delayTime = (4095*delayTime)/100 - 1;
  42:PCA9685.c     ****         return delayTime;
  43:PCA9685.c     **** }
  34              		.loc 1 43 0
  35 0000 2720     		movs	r0, #39
  36              		@ sp needed
  37 0002 7047     		bx	lr
  38              		.cfi_endproc
  39              	.LFE36:
  40              		.size	TurnOnTimeL, .-TurnOnTimeL
  41              		.section	.text.TurnOnTimeH,"ax",%progbits
  42              		.align	2
  43              		.global	TurnOnTimeH
  44              		.code	16
  45              		.thumb_func
  46              		.type	TurnOnTimeH, %function
  47              	TurnOnTimeH:
  48              	.LFB37:
  44:PCA9685.c     **** 
  45:PCA9685.c     **** /*Shifting to the right keeps the four most signifcant bits but gets rid of 8 least significant dig
  46:PCA9685.c     **** uint8 TurnOnTimeH(){
  49              		.loc 1 46 0
  50              		.cfi_startproc
  51              		@ args = 0, pretend = 0, frame = 0
  52              		@ frame_needed = 0, uses_anonymous_args = 0
  53              		@ link register save eliminated.
  54              	.LVL1:
  47:PCA9685.c     ****     int delayTime = DELAYTIME;
  48:PCA9685.c     ****     delayTime = (4095*delayTime)/100 - 1;
  49:PCA9685.c     ****     delayTime = delayTime >> 8;
  50:PCA9685.c     ****         return delayTime;
  51:PCA9685.c     **** }
  55              		.loc 1 51 0
  56 0000 0020     		movs	r0, #0
  57              		@ sp needed
  58 0002 7047     		bx	lr
  59              		.cfi_endproc
  60              	.LFE37:
  61              		.size	TurnOnTimeH, .-TurnOnTimeH
  62              		.global	__aeabi_f2iz
  63              		.global	__aeabi_fmul
ARM GAS  C:\Users\mewin\AppData\Local\Temp\ccd8OhvF.s 			page 3


  64              		.global	__aeabi_fdiv
  65              		.global	__aeabi_fadd
  66              		.global	__aeabi_fsub
  67              		.section	.text.TurnOffTimeL,"ax",%progbits
  68              		.align	2
  69              		.global	TurnOffTimeL
  70              		.code	16
  71              		.thumb_func
  72              		.type	TurnOffTimeL, %function
  73              	TurnOffTimeL:
  74              	.LFB38:
  52:PCA9685.c     **** 
  53:PCA9685.c     **** uint8 TurnOffTimeL(float32 dutyCycle){
  75              		.loc 1 53 0
  76              		.cfi_startproc
  77              		@ args = 0, pretend = 0, frame = 0
  78              		@ frame_needed = 0, uses_anonymous_args = 0
  79              	.LVL2:
  80 0000 10B5     		push	{r4, lr}
  81              		.cfi_def_cfa_offset 8
  82              		.cfi_offset 4, -8
  83              		.cfi_offset 14, -4
  84 0002 041C     		adds	r4, r0, #0
  85              	.LVL3:
  54:PCA9685.c     ****     int delayTime = DELAYTIME;
  55:PCA9685.c     ****     int offTime=0;
  56:PCA9685.c     ****     if(delayTime+((int)dutyCycle)<=100){
  86              		.loc 1 56 0
  87 0004 FFF7FEFF 		bl	__aeabi_f2iz
  88              	.LVL4:
  89 0008 0130     		adds	r0, r0, #1
  90 000a 6428     		cmp	r0, #100
  91 000c 0CDC     		bgt	.L4
  92              	.LVL5:
  57:PCA9685.c     ****     delayTime = (4095*delayTime)/100 - 1;
  58:PCA9685.c     ****     dutyCycle = (4095*dutyCycle)/100;
  93              		.loc 1 58 0
  94 000e 0F49     		ldr	r1, .L6
  95 0010 201C     		adds	r0, r4, #0
  96 0012 FFF7FEFF 		bl	__aeabi_fmul
  97              	.LVL6:
  98 0016 0E49     		ldr	r1, .L6+4
  99 0018 FFF7FEFF 		bl	__aeabi_fdiv
 100              	.LVL7:
  59:PCA9685.c     ****     offTime = delayTime + dutyCycle;
 101              		.loc 1 59 0
 102 001c 0D49     		ldr	r1, .L6+8
 103 001e FFF7FEFF 		bl	__aeabi_fadd
 104              	.LVL8:
 105 0022 FFF7FEFF 		bl	__aeabi_f2iz
 106              	.LVL9:
 107 0026 0FE0     		b	.L5
 108              	.LVL10:
 109              	.L4:
  60:PCA9685.c     ****     } else {
  61:PCA9685.c     ****     delayTime = (4095*delayTime)/100 - 1;
  62:PCA9685.c     ****     dutyCycle = (4095*dutyCycle)/100;
ARM GAS  C:\Users\mewin\AppData\Local\Temp\ccd8OhvF.s 			page 4


 110              		.loc 1 62 0
 111 0028 0849     		ldr	r1, .L6
 112 002a 201C     		adds	r0, r4, #0
 113 002c FFF7FEFF 		bl	__aeabi_fmul
 114              	.LVL11:
 115 0030 0749     		ldr	r1, .L6+4
 116 0032 FFF7FEFF 		bl	__aeabi_fdiv
 117              	.LVL12:
  63:PCA9685.c     ****     offTime = delayTime + dutyCycle - 4096;
 118              		.loc 1 63 0
 119 0036 0749     		ldr	r1, .L6+8
 120 0038 FFF7FEFF 		bl	__aeabi_fadd
 121              	.LVL13:
 122 003c 8B21     		movs	r1, #139
 123 003e C905     		lsls	r1, r1, #23
 124 0040 FFF7FEFF 		bl	__aeabi_fsub
 125              	.LVL14:
 126 0044 FFF7FEFF 		bl	__aeabi_f2iz
 127              	.LVL15:
 128              	.L5:
  64:PCA9685.c     ****     offTime = offTime;
  65:PCA9685.c     ****     }
  66:PCA9685.c     ****        return offTime;}
 129              		.loc 1 66 0
 130 0048 C0B2     		uxtb	r0, r0
 131              	.LVL16:
 132              		@ sp needed
 133 004a 10BD     		pop	{r4, pc}
 134              	.L7:
 135              		.align	2
 136              	.L6:
 137 004c 00F07F45 		.word	1166012416
 138 0050 0000C842 		.word	1120403456
 139 0054 00001C42 		.word	1109131264
 140              		.cfi_endproc
 141              	.LFE38:
 142              		.size	TurnOffTimeL, .-TurnOffTimeL
 143              		.section	.text.TurnOffTimeH,"ax",%progbits
 144              		.align	2
 145              		.global	TurnOffTimeH
 146              		.code	16
 147              		.thumb_func
 148              		.type	TurnOffTimeH, %function
 149              	TurnOffTimeH:
 150              	.LFB39:
  67:PCA9685.c     **** 
  68:PCA9685.c     **** uint8 TurnOffTimeH(float32 dutyCycle){
 151              		.loc 1 68 0
 152              		.cfi_startproc
 153              		@ args = 0, pretend = 0, frame = 0
 154              		@ frame_needed = 0, uses_anonymous_args = 0
 155              	.LVL17:
 156 0000 10B5     		push	{r4, lr}
 157              		.cfi_def_cfa_offset 8
 158              		.cfi_offset 4, -8
 159              		.cfi_offset 14, -4
 160 0002 041C     		adds	r4, r0, #0
ARM GAS  C:\Users\mewin\AppData\Local\Temp\ccd8OhvF.s 			page 5


 161              	.LVL18:
  69:PCA9685.c     ****     int delayTime = DELAYTIME;
  70:PCA9685.c     ****     int offTime = 0; //initialized because program giving a warning
  71:PCA9685.c     ****     if(delayTime+((int)dutyCycle)<=100){
 162              		.loc 1 71 0
 163 0004 FFF7FEFF 		bl	__aeabi_f2iz
 164              	.LVL19:
 165 0008 0130     		adds	r0, r0, #1
 166 000a 6428     		cmp	r0, #100
 167 000c 0CDC     		bgt	.L9
 168              	.LVL20:
  72:PCA9685.c     ****     delayTime = (4095*delayTime)/100 - 1;
  73:PCA9685.c     ****     dutyCycle = (4095*dutyCycle)/100;
 169              		.loc 1 73 0
 170 000e 0E49     		ldr	r1, .L11
 171 0010 201C     		adds	r0, r4, #0
 172 0012 FFF7FEFF 		bl	__aeabi_fmul
 173              	.LVL21:
 174 0016 0D49     		ldr	r1, .L11+4
 175 0018 FFF7FEFF 		bl	__aeabi_fdiv
 176              	.LVL22:
  74:PCA9685.c     ****     offTime = delayTime + dutyCycle;
 177              		.loc 1 74 0
 178 001c 0C49     		ldr	r1, .L11+8
 179 001e FFF7FEFF 		bl	__aeabi_fadd
 180              	.LVL23:
 181 0022 FFF7FEFF 		bl	__aeabi_f2iz
 182              	.LVL24:
 183 0026 0BE0     		b	.L10
 184              	.LVL25:
 185              	.L9:
  75:PCA9685.c     ****     } else {
  76:PCA9685.c     ****     delayTime = (4095*delayTime)/100 - 1;
  77:PCA9685.c     ****     dutyCycle = (4095*dutyCycle)/100;
 186              		.loc 1 77 0
 187 0028 0749     		ldr	r1, .L11
 188 002a 201C     		adds	r0, r4, #0
 189 002c FFF7FEFF 		bl	__aeabi_fmul
 190              	.LVL26:
 191 0030 0649     		ldr	r1, .L11+4
 192 0032 FFF7FEFF 		bl	__aeabi_fdiv
 193              	.LVL27:
  78:PCA9685.c     ****     offTime = delayTime + dutyCycle - offTime;
 194              		.loc 1 78 0
 195 0036 0649     		ldr	r1, .L11+8
 196 0038 FFF7FEFF 		bl	__aeabi_fadd
 197              	.LVL28:
 198 003c FFF7FEFF 		bl	__aeabi_f2iz
 199              	.LVL29:
 200              	.L10:
  79:PCA9685.c     ****     }
  80:PCA9685.c     ****        return offTime >> 8;}
 201              		.loc 1 80 0
 202 0040 0012     		asrs	r0, r0, #8
 203              	.LVL30:
 204 0042 C0B2     		uxtb	r0, r0
 205              		@ sp needed
ARM GAS  C:\Users\mewin\AppData\Local\Temp\ccd8OhvF.s 			page 6


 206 0044 10BD     		pop	{r4, pc}
 207              	.L12:
 208 0046 C046     		.align	2
 209              	.L11:
 210 0048 00F07F45 		.word	1166012416
 211 004c 0000C842 		.word	1120403456
 212 0050 00001C42 		.word	1109131264
 213              		.cfi_endproc
 214              	.LFE39:
 215              		.size	TurnOffTimeH, .-TurnOffTimeH
 216              		.section	.text.writeBuffer,"ax",%progbits
 217              		.align	2
 218              		.global	writeBuffer
 219              		.code	16
 220              		.thumb_func
 221              		.type	writeBuffer, %function
 222              	writeBuffer:
 223              	.LFB40:
  81:PCA9685.c     **** 
  82:PCA9685.c     **** uint32 writeBuffer(uint8 *buff, uint32_t PCA9685Address){
 224              		.loc 1 82 0
 225              		.cfi_startproc
 226              		@ args = 0, pretend = 0, frame = 0
 227              		@ frame_needed = 0, uses_anonymous_args = 0
 228              	.LVL31:
 229 0000 70B5     		push	{r4, r5, r6, lr}
 230              		.cfi_def_cfa_offset 16
 231              		.cfi_offset 4, -16
 232              		.cfi_offset 5, -12
 233              		.cfi_offset 6, -8
 234              		.cfi_offset 14, -4
 235 0002 0500     		movs	r5, r0
 236 0004 0C00     		movs	r4, r1
 237              	.LVL32:
  83:PCA9685.c     ****      uint32 status = TRANSFER_ERROR;
  84:PCA9685.c     ****     
  85:PCA9685.c     ****     (void) I2C_I2CMasterClearStatus();
 238              		.loc 1 85 0
 239 0006 FFF7FEFF 		bl	I2C_I2CMasterClearStatus
 240              	.LVL33:
  86:PCA9685.c     ****          if( I2C_I2C_MSTR_NO_ERROR ==  I2C_I2CMasterWriteBuf(PCA9685Address, buff,
 241              		.loc 1 86 0
 242 000a 0023     		movs	r3, #0
 243 000c 0222     		movs	r2, #2
 244 000e 2900     		movs	r1, r5
 245 0010 2000     		movs	r0, r4
 246 0012 FFF7FEFF 		bl	I2C_I2CMasterWriteBuf
 247              	.LVL34:
 248 0016 0028     		cmp	r0, #0
 249 0018 0DD1     		bne	.L16
 250              	.L15:
  87:PCA9685.c     ****                                                             bufferSize, I2C_I2C_MODE_COMPLETE_XFER)
  88:PCA9685.c     ****      /* If I2C write started without errors, 
  89:PCA9685.c     ****          * wait until I2C Master completes write transfer */
  90:PCA9685.c     ****         while (0u == (I2C_I2CMasterStatus() & I2C_I2C_MSTAT_WR_CMPLT))
 251              		.loc 1 90 0 discriminator 1
 252 001a FFF7FEFF 		bl	I2C_I2CMasterStatus
ARM GAS  C:\Users\mewin\AppData\Local\Temp\ccd8OhvF.s 			page 7


 253              	.LVL35:
 254 001e 8307     		lsls	r3, r0, #30
 255 0020 FBD5     		bpl	.L15
  91:PCA9685.c     ****         {
  92:PCA9685.c     ****         }
  93:PCA9685.c     ****         
  94:PCA9685.c     ****         /* Report transfer status */
  95:PCA9685.c     ****         if (0u == (I2C_I2CMasterStatus() & I2C_I2C_MSTAT_ERR_XFER))
 256              		.loc 1 95 0
 257 0022 FFF7FEFF 		bl	I2C_I2CMasterStatus
 258              	.LVL36:
 259 0026 8305     		lsls	r3, r0, #22
 260 0028 07D4     		bmi	.L17
  96:PCA9685.c     ****         {
  97:PCA9685.c     ****             /* Check if all bytes were written */
  98:PCA9685.c     ****             if (I2C_I2CMasterGetWriteBufSize() == bufferSize)
 261              		.loc 1 98 0
 262 002a FFF7FEFF 		bl	I2C_I2CMasterGetWriteBufSize
 263              	.LVL37:
 264 002e 0228     		cmp	r0, #2
 265 0030 05D0     		beq	.L18
  83:PCA9685.c     ****     
 266              		.loc 1 83 0
 267 0032 FF20     		movs	r0, #255
 268 0034 04E0     		b	.L14
 269              	.L16:
 270 0036 FF20     		movs	r0, #255
 271 0038 02E0     		b	.L14
 272              	.L17:
 273 003a FF20     		movs	r0, #255
 274 003c 00E0     		b	.L14
 275              	.L18:
  99:PCA9685.c     ****             {
 100:PCA9685.c     ****                 status = TRANSFER_CMPLT;
 276              		.loc 1 100 0
 277 003e 0020     		movs	r0, #0
 278              	.L14:
 279              	.LVL38:
 101:PCA9685.c     ****             }
 102:PCA9685.c     ****         }
 103:PCA9685.c     ****     }
 104:PCA9685.c     ****     
 105:PCA9685.c     ****     return status;}
 280              		.loc 1 105 0
 281              		@ sp needed
 282              	.LVL39:
 283              	.LVL40:
 284 0040 70BD     		pop	{r4, r5, r6, pc}
 285              		.cfi_endproc
 286              	.LFE40:
 287              		.size	writeBuffer, .-writeBuffer
 288 0042 C046     		.section	.text.pca_init,"ax",%progbits
 289              		.align	2
 290              		.global	pca_init
 291              		.code	16
 292              		.thumb_func
 293              		.type	pca_init, %function
ARM GAS  C:\Users\mewin\AppData\Local\Temp\ccd8OhvF.s 			page 8


 294              	pca_init:
 295              	.LFB34:
  16:PCA9685.c     ****     I2C_Start();
 296              		.loc 1 16 0
 297              		.cfi_startproc
 298              		@ args = 0, pretend = 0, frame = 16
 299              		@ frame_needed = 0, uses_anonymous_args = 0
 300 0000 10B5     		push	{r4, lr}
 301              		.cfi_def_cfa_offset 8
 302              		.cfi_offset 4, -8
 303              		.cfi_offset 14, -4
 304 0002 84B0     		sub	sp, sp, #16
 305              		.cfi_def_cfa_offset 24
  17:PCA9685.c     ****     I2C_Enable();
 306              		.loc 1 17 0
 307 0004 FFF7FEFF 		bl	I2C_Start
 308              	.LVL41:
  18:PCA9685.c     ****     
 309              		.loc 1 18 0
 310 0008 FFF7FEFF 		bl	I2C_Enable
 311              	.LVL42:
  20:PCA9685.c     ****     writeBuffer(mode_buf, PCA9685ADDY);
 312              		.loc 1 20 0
 313 000c 03A8     		add	r0, sp, #12
 314 000e 0024     		movs	r4, #0
 315 0010 0470     		strb	r4, [r0]
 316 0012 9023     		movs	r3, #144
 317 0014 4370     		strb	r3, [r0, #1]
  21:PCA9685.c     ****     
 318              		.loc 1 21 0
 319 0016 4021     		movs	r1, #64
 320 0018 FFF7FEFF 		bl	writeBuffer
 321              	.LVL43:
  23:PCA9685.c     ****     writeBuffer(freq_buf, PCA9685ADDY);
 322              		.loc 1 23 0
 323 001c 0222     		movs	r2, #2
 324 001e 0849     		ldr	r1, .L20
 325 0020 02A8     		add	r0, sp, #8
 326 0022 FFF7FEFF 		bl	memcpy
 327              	.LVL44:
  24:PCA9685.c     ****     
 328              		.loc 1 24 0
 329 0026 4021     		movs	r1, #64
 330 0028 02A8     		add	r0, sp, #8
 331 002a FFF7FEFF 		bl	writeBuffer
 332              	.LVL45:
  26:PCA9685.c     ****     writeBuffer(mode_buf2, PCA9685ADDY);
 333              		.loc 1 26 0
 334 002e 01A8     		add	r0, sp, #4
 335 0030 0470     		strb	r4, [r0]
 336 0032 8023     		movs	r3, #128
 337 0034 4370     		strb	r3, [r0, #1]
  27:PCA9685.c     **** }
 338              		.loc 1 27 0
 339 0036 4021     		movs	r1, #64
 340 0038 FFF7FEFF 		bl	writeBuffer
 341              	.LVL46:
ARM GAS  C:\Users\mewin\AppData\Local\Temp\ccd8OhvF.s 			page 9


  28:PCA9685.c     **** 
 342              		.loc 1 28 0
 343 003c 04B0     		add	sp, sp, #16
 344              		@ sp needed
 345 003e 10BD     		pop	{r4, pc}
 346              	.L21:
 347              		.align	2
 348              	.L20:
 349 0040 00000000 		.word	.LANCHOR0
 350              		.cfi_endproc
 351              	.LFE34:
 352              		.size	pca_init, .-pca_init
 353              		.section	.text.writeByte,"ax",%progbits
 354              		.align	2
 355              		.global	writeByte
 356              		.code	16
 357              		.thumb_func
 358              		.type	writeByte, %function
 359              	writeByte:
 360              	.LFB35:
  31:PCA9685.c     ****      uint8 buf[2] = {chip_register, value};
 361              		.loc 1 31 0
 362              		.cfi_startproc
 363              		@ args = 0, pretend = 0, frame = 8
 364              		@ frame_needed = 0, uses_anonymous_args = 0
 365              	.LVL47:
 366 0000 00B5     		push	{lr}
 367              		.cfi_def_cfa_offset 4
 368              		.cfi_offset 14, -4
 369 0002 83B0     		sub	sp, sp, #12
 370              		.cfi_def_cfa_offset 16
  32:PCA9685.c     ****      writeBuffer(buf, PCA9685ADDY);
 371              		.loc 1 32 0
 372 0004 01AB     		add	r3, sp, #4
 373 0006 1870     		strb	r0, [r3]
 374 0008 5970     		strb	r1, [r3, #1]
  33:PCA9685.c     **** }
 375              		.loc 1 33 0
 376 000a 4021     		movs	r1, #64
 377              	.LVL48:
 378 000c 1800     		movs	r0, r3
 379              	.LVL49:
 380 000e FFF7FEFF 		bl	writeBuffer
 381              	.LVL50:
  34:PCA9685.c     **** 
 382              		.loc 1 34 0
 383 0012 03B0     		add	sp, sp, #12
 384              		@ sp needed
 385 0014 00BD     		pop	{pc}
 386              		.cfi_endproc
 387              	.LFE35:
 388              		.size	writeByte, .-writeByte
 389 0016 C046     		.section	.text.setPWMFromBytes,"ax",%progbits
 390              		.align	2
 391              		.global	setPWMFromBytes
 392              		.code	16
 393              		.thumb_func
ARM GAS  C:\Users\mewin\AppData\Local\Temp\ccd8OhvF.s 			page 10


 394              		.type	setPWMFromBytes, %function
 395              	setPWMFromBytes:
 396              	.LFB41:
 106:PCA9685.c     **** 
 107:PCA9685.c     **** //void setPWMFromBytes(int pinN, uint8 onTimeL, uint8 onTimeH, uint8 offTimeL, uint8 offTimeH){
 108:PCA9685.c     **** //    uint8 registerNum = 0;
 109:PCA9685.c     **** //    registerNum = 0x06 + pinN * 4;
 110:PCA9685.c     **** //    uint8 buf[5] = {registerNum, onTimeL, onTimeH, offTimeL, offTimeH};
 111:PCA9685.c     **** //    writeBuffer(buf, PCA9685ADDY);
 112:PCA9685.c     **** //    
 113:PCA9685.c     **** ////    writeByte(registerNum, onTimeL);
 114:PCA9685.c     **** ////    writeByte(registerNum+1, onTimeH);
 115:PCA9685.c     **** ////    writeByte(registerNum+2, offTimeL);
 116:PCA9685.c     **** ////    writeByte(registerNum+3, offTimeH);
 117:PCA9685.c     **** //}
 118:PCA9685.c     **** void setPWMFromBytes(int pinN, uint8 onTimeL, uint8 onTimeH, uint8 offTimeL, uint8 offTimeH){
 397              		.loc 1 118 0
 398              		.cfi_startproc
 399              		@ args = 4, pretend = 0, frame = 0
 400              		@ frame_needed = 0, uses_anonymous_args = 0
 401              	.LVL51:
 402 0000 F8B5     		push	{r3, r4, r5, r6, r7, lr}
 403              		.cfi_def_cfa_offset 24
 404              		.cfi_offset 3, -24
 405              		.cfi_offset 4, -20
 406              		.cfi_offset 5, -16
 407              		.cfi_offset 6, -12
 408              		.cfi_offset 7, -8
 409              		.cfi_offset 14, -4
 410 0002 1700     		movs	r7, r2
 411 0004 1D00     		movs	r5, r3
 412 0006 06AB     		add	r3, sp, #24
 413              	.LVL52:
 414 0008 1E78     		ldrb	r6, [r3]
 415              	.LVL53:
 119:PCA9685.c     ****     uint8 registerNum = 0;
 120:PCA9685.c     ****     registerNum = 0x06 + pinN * 4;
 416              		.loc 1 120 0
 417 000a 8000     		lsls	r0, r0, #2
 418              	.LVL54:
 419 000c C4B2     		uxtb	r4, r0
 420 000e A01D     		adds	r0, r4, #6
 421 0010 C0B2     		uxtb	r0, r0
 422              	.LVL55:
 121:PCA9685.c     ****     
 122:PCA9685.c     ****     writeByte(registerNum, onTimeL);
 423              		.loc 1 122 0
 424 0012 FFF7FEFF 		bl	writeByte
 425              	.LVL56:
 123:PCA9685.c     ****     writeByte(registerNum+1, onTimeH);
 426              		.loc 1 123 0
 427 0016 E01D     		adds	r0, r4, #7
 428 0018 C0B2     		uxtb	r0, r0
 429 001a 3900     		movs	r1, r7
 430 001c FFF7FEFF 		bl	writeByte
 431              	.LVL57:
 124:PCA9685.c     ****     writeByte(registerNum+2, offTimeL);
ARM GAS  C:\Users\mewin\AppData\Local\Temp\ccd8OhvF.s 			page 11


 432              		.loc 1 124 0
 433 0020 2000     		movs	r0, r4
 434 0022 0830     		adds	r0, r0, #8
 435 0024 C0B2     		uxtb	r0, r0
 436 0026 2900     		movs	r1, r5
 437 0028 FFF7FEFF 		bl	writeByte
 438              	.LVL58:
 125:PCA9685.c     ****     writeByte(registerNum+3, offTimeH);
 439              		.loc 1 125 0
 440 002c 0934     		adds	r4, r4, #9
 441              	.LVL59:
 442 002e E0B2     		uxtb	r0, r4
 443 0030 3100     		movs	r1, r6
 444 0032 FFF7FEFF 		bl	writeByte
 445              	.LVL60:
 126:PCA9685.c     **** }
 446              		.loc 1 126 0
 447              		@ sp needed
 448              	.LVL61:
 449 0036 F8BD     		pop	{r3, r4, r5, r6, r7, pc}
 450              		.cfi_endproc
 451              	.LFE41:
 452              		.size	setPWMFromBytes, .-setPWMFromBytes
 453              		.section	.text.setPWMFromDutyCycle,"ax",%progbits
 454              		.align	2
 455              		.global	setPWMFromDutyCycle
 456              		.code	16
 457              		.thumb_func
 458              		.type	setPWMFromDutyCycle, %function
 459              	setPWMFromDutyCycle:
 460              	.LFB42:
 127:PCA9685.c     **** 
 128:PCA9685.c     **** void setPWMFromDutyCycle(int pinN, float32 dutyCycle){
 461              		.loc 1 128 0
 462              		.cfi_startproc
 463              		@ args = 0, pretend = 0, frame = 0
 464              		@ frame_needed = 0, uses_anonymous_args = 0
 465              	.LVL62:
 466 0000 70B5     		push	{r4, r5, r6, lr}
 467              		.cfi_def_cfa_offset 16
 468              		.cfi_offset 4, -16
 469              		.cfi_offset 5, -12
 470              		.cfi_offset 6, -8
 471              		.cfi_offset 14, -4
 472 0002 0D1C     		adds	r5, r1, #0
 473              	.LVL63:
 129:PCA9685.c     ****     uint8 registerNum = 0;
 130:PCA9685.c     ****     registerNum = 0x06 + pinN * 4;
 474              		.loc 1 130 0
 475 0004 8000     		lsls	r0, r0, #2
 476              	.LVL64:
 477 0006 C4B2     		uxtb	r4, r0
 478 0008 A61D     		adds	r6, r4, #6
 479 000a F6B2     		uxtb	r6, r6
 480              	.LVL65:
 131:PCA9685.c     ****        
 132:PCA9685.c     ****     writeByte(registerNum, TurnOnTimeL());
ARM GAS  C:\Users\mewin\AppData\Local\Temp\ccd8OhvF.s 			page 12


 481              		.loc 1 132 0
 482 000c FFF7FEFF 		bl	TurnOnTimeL
 483              	.LVL66:
 484 0010 0100     		movs	r1, r0
 485 0012 3000     		movs	r0, r6
 486 0014 FFF7FEFF 		bl	writeByte
 487              	.LVL67:
 133:PCA9685.c     ****     writeByte(registerNum+1, TurnOnTimeH());
 488              		.loc 1 133 0
 489 0018 FFF7FEFF 		bl	TurnOnTimeH
 490              	.LVL68:
 491 001c 0100     		movs	r1, r0
 492 001e E31D     		adds	r3, r4, #7
 493 0020 D8B2     		uxtb	r0, r3
 494 0022 FFF7FEFF 		bl	writeByte
 495              	.LVL69:
 134:PCA9685.c     ****     writeByte(registerNum+2, TurnOffTimeL(dutyCycle));
 496              		.loc 1 134 0
 497 0026 281C     		adds	r0, r5, #0
 498 0028 FFF7FEFF 		bl	TurnOffTimeL
 499              	.LVL70:
 500 002c 0100     		movs	r1, r0
 501 002e 2300     		movs	r3, r4
 502 0030 0833     		adds	r3, r3, #8
 503 0032 D8B2     		uxtb	r0, r3
 504 0034 FFF7FEFF 		bl	writeByte
 505              	.LVL71:
 135:PCA9685.c     ****     writeByte(registerNum+3, TurnOffTimeH(dutyCycle));
 506              		.loc 1 135 0
 507 0038 281C     		adds	r0, r5, #0
 508 003a FFF7FEFF 		bl	TurnOffTimeH
 509              	.LVL72:
 510 003e 0100     		movs	r1, r0
 511 0040 0934     		adds	r4, r4, #9
 512 0042 E0B2     		uxtb	r0, r4
 513 0044 FFF7FEFF 		bl	writeByte
 514              	.LVL73:
 136:PCA9685.c     **** }
 515              		.loc 1 136 0
 516              		@ sp needed
 517              	.LVL74:
 518              	.LVL75:
 519 0048 70BD     		pop	{r4, r5, r6, pc}
 520              		.cfi_endproc
 521              	.LFE42:
 522              		.size	setPWMFromDutyCycle, .-setPWMFromDutyCycle
 523 004a C046     		.section	.rodata
 524              		.align	2
 525              		.set	.LANCHOR0,. + 0
 526              	.LC0:
 527 0000 FE       		.byte	-2
 528 0001 79       		.byte	121
 529              		.text
 530              	.Letext0:
 531              		.file 2 "c:\\program files (x86)\\cypress\\psoc creator\\4.4\\psoc creator\\import\\gnu\\arm\\5.4.
 532              		.file 3 "c:\\program files (x86)\\cypress\\psoc creator\\4.4\\psoc creator\\import\\gnu\\arm\\5.4.
 533              		.file 4 "Generated_Source\\PSoC4/cytypes.h"
ARM GAS  C:\Users\mewin\AppData\Local\Temp\ccd8OhvF.s 			page 13


 534              		.file 5 "Generated_Source\\PSoC4/I2C_I2C.h"
 535              		.file 6 "Generated_Source\\PSoC4/I2C.h"