ARM GAS  C:\Users\write\AppData\Local\Temp\ccVkjSQc.s 			page 1


   1              		.syntax unified
   2              		.cpu cortex-m0
   3              		.fpu softvfp
   4              		.eabi_attribute 20, 1
   5              		.eabi_attribute 21, 1
   6              		.eabi_attribute 23, 3
   7              		.eabi_attribute 24, 1
   8              		.eabi_attribute 25, 1
   9              		.eabi_attribute 26, 1
  10              		.eabi_attribute 30, 1
  11              		.eabi_attribute 34, 0
  12              		.eabi_attribute 18, 4
  13              		.thumb
  14              		.syntax unified
  15              		.file	"sensor.c"
  16              		.text
  17              	.Ltext0:
  18              		.cfi_sections	.debug_frame
  19              		.section	.text.read_ADC,"ax",%progbits
  20              		.align	2
  21              		.global	read_ADC
  22              		.code	16
  23              		.thumb_func
  24              		.type	read_ADC, %function
  25              	read_ADC:
  26              	.LFB35:
  27              		.file 1 "sensor.c"
   1:sensor.c      **** /* File:         sensor.c
   2:sensor.c      ****  * Authors:      Oliver Huang, Jordan Smith.
   3:sensor.c      ****  * Organization: Husky Robotics Team
   4:sensor.c      ****  * 
   5:sensor.c      ****  * This file includes fuction implementations for the sensors on the 
   6:sensor.c      ****  * Science Board allowing reading from an ADC
   7:sensor.c      ****  */
   8:sensor.c      **** #include "project.h"
   9:sensor.c      **** #include "CANLibrary.h"
  10:sensor.c      **** #include "CANScience.h"
  11:sensor.c      **** #include "sensor.h"
  12:sensor.c      **** #include <stdint.h>
  13:sensor.c      **** 
  14:sensor.c      **** #define HUMIDITY (uint8_t) 0x16
  15:sensor.c      **** #define TEMPERATURE (uint8_t) 0x17 //wrong
  16:sensor.c      **** 
  17:sensor.c      **** #define VEML6070_ADDR_ARA 0x18
  18:sensor.c      **** #define VEML6070_ADDR_CMD 0x70
  19:sensor.c      **** #define VEML6070_ADDR_DATA_LSB 0x71
  20:sensor.c      **** #define VEML6070_ADDR_DATA_MSB 0x73
  21:sensor.c      **** 
  22:sensor.c      **** 
  23:sensor.c      **** //referenced John's past work
  24:sensor.c      **** void get_data(CANPacket* packet) {
  25:sensor.c      ****     CANPacket new_packet;
  26:sensor.c      ****     uint8_t sensor_type = DecodeTelemetryType(packet);
  27:sensor.c      ****     uint8_t target_group = GetSenderDeviceGroupCode(packet);
  28:sensor.c      ****     uint8_t target_serial = GetSenderDeviceSerialNumber(packet);
  29:sensor.c      ****     uint32_t sensor_val = 0;
  30:sensor.c      ****     switch(sensor_type) {
ARM GAS  C:\Users\write\AppData\Local\Temp\ccVkjSQc.s 			page 2


  31:sensor.c      ****         case HUMIDITY :
  32:sensor.c      ****             sensor_val = read_ADC(0);
  33:sensor.c      ****             break;
  34:sensor.c      ****         case TEMPERATURE :
  35:sensor.c      ****             sensor_val = read_ADC(1); 
  36:sensor.c      ****             break;
  37:sensor.c      ****         case CAN_SCIENCE_SENSOR_UV :
  38:sensor.c      ****             sensor_val = read_uv_sensor();
  39:sensor.c      ****             break;
  40:sensor.c      ****     }
  41:sensor.c      ****     //assemble and send telemetry packet
  42:sensor.c      ****     AssembleTelemetryReportPacket(&new_packet, target_group, target_serial, sensor_type, sensor_val
  43:sensor.c      ****     //SendCANPacket returns 0x0 for successful send, 0x1 for generic error, 0x2 if all output buffe
  44:sensor.c      ****     if(SendCANPacket(&new_packet)){ 
  45:sensor.c      **** 		ERR_LED_Write(0);
  46:sensor.c      ****         CyDelay(500);
  47:sensor.c      ****         ERR_LED_Write(1);
  48:sensor.c      **** 	}
  49:sensor.c      ****     
  50:sensor.c      **** }
  51:sensor.c      **** 
  52:sensor.c      **** uint16_t read_ADC(uint32_t channel) {
  28              		.loc 1 52 0
  29              		.cfi_startproc
  30              		@ args = 0, pretend = 0, frame = 0
  31              		@ frame_needed = 0, uses_anonymous_args = 0
  32              	.LVL0:
  33 0000 10B5     		push	{r4, lr}
  34              		.cfi_def_cfa_offset 8
  35              		.cfi_offset 4, -8
  36              		.cfi_offset 14, -4
  37 0002 0400     		movs	r4, r0
  53:sensor.c      ****     ADC_StartConvert();
  38              		.loc 1 53 0
  39 0004 FFF7FEFF 		bl	ADC_StartConvert
  40              	.LVL1:
  54:sensor.c      ****     ADC_IsEndConversion(ADC_WAIT_FOR_RESULT); //returns when all conversions are completed
  41              		.loc 1 54 0
  42 0008 0220     		movs	r0, #2
  43 000a FFF7FEFF 		bl	ADC_IsEndConversion
  44              	.LVL2:
  55:sensor.c      ****     ADC_StopConvert();
  45              		.loc 1 55 0
  46 000e FFF7FEFF 		bl	ADC_StopConvert
  47              	.LVL3:
  56:sensor.c      ****     return ADC_GetResult16(channel); //channel 0 for humidity and 1 for temperature
  48              		.loc 1 56 0
  49 0012 2000     		movs	r0, r4
  50 0014 FFF7FEFF 		bl	ADC_GetResult16
  51              	.LVL4:
  52 0018 80B2     		uxth	r0, r0
  57:sensor.c      **** }
  53              		.loc 1 57 0
  54              		@ sp needed
  55              	.LVL5:
  56 001a 10BD     		pop	{r4, pc}
  57              		.cfi_endproc
ARM GAS  C:\Users\write\AppData\Local\Temp\ccVkjSQc.s 			page 3


  58              	.LFE35:
  59              		.size	read_ADC, .-read_ADC
  60              		.section	.text.I2C_bus_read,"ax",%progbits
  61              		.align	2
  62              		.global	I2C_bus_read
  63              		.code	16
  64              		.thumb_func
  65              		.type	I2C_bus_read, %function
  66              	I2C_bus_read:
  67              	.LFB37:
  58:sensor.c      **** 
  59:sensor.c      **** 
  60:sensor.c      **** 
  61:sensor.c      **** 
  62:sensor.c      **** //void VEML6070_init(){
  63:sensor.c      **** //	wdt_reset();
  64:sensor.c      **** //	VEML6070_read_byte(VEML6070_ADDR_ARA);
  65:sensor.c      **** //	VEML6070_write_byte(VEML6070_ADDR_CMD, 0x04); //Integration time = 1 //Possibly 06
  66:sensor.c      **** //}
  67:sensor.c      **** 
  68:sensor.c      **** uint16_t read_uv_sensor(){
  69:sensor.c      **** 	uint8_t lsb;
  70:sensor.c      ****     uint8_t msb;
  71:sensor.c      ****     uint8_t lsberror = I2C_bus_read(VEML6070_ADDR_CMD, VEML6070_ADDR_DATA_LSB, &lsb, 1);
  72:sensor.c      **** 	uint8_t msberror = I2C_bus_read(VEML6070_ADDR_CMD, VEML6070_ADDR_DATA_MSB, &msb, 1);
  73:sensor.c      ****     
  74:sensor.c      ****     if (lsberror != I2C_I2C_MSTR_NO_ERROR || msberror != I2C_I2C_MSTR_NO_ERROR){
  75:sensor.c      ****         ERR_LED_Write(0);
  76:sensor.c      ****         CyDelay(500);
  77:sensor.c      ****         ERR_LED_Write(1);
  78:sensor.c      ****     }
  79:sensor.c      **** 	return (msb << 8) | lsb;
  80:sensor.c      **** }
  81:sensor.c      **** 
  82:sensor.c      **** 
  83:sensor.c      **** 
  84:sensor.c      **** //yoinked from davis
  85:sensor.c      **** //read byte(s) from i2C and store in array
  86:sensor.c      **** uint8_t I2C_bus_read(uint8_t dev_addr, uint8_t reg_addr, uint8_t *reg_data, uint8_t cnt)
  87:sensor.c      **** {
  68              		.loc 1 87 0
  69              		.cfi_startproc
  70              		@ args = 0, pretend = 0, frame = 0
  71              		@ frame_needed = 0, uses_anonymous_args = 0
  72              	.LVL6:
  73 0000 F8B5     		push	{r3, r4, r5, r6, r7, lr}
  74              		.cfi_def_cfa_offset 24
  75              		.cfi_offset 3, -24
  76              		.cfi_offset 4, -20
  77              		.cfi_offset 5, -16
  78              		.cfi_offset 6, -12
  79              		.cfi_offset 7, -8
  80              		.cfi_offset 14, -4
  81 0002 0400     		movs	r4, r0
  82 0004 0E00     		movs	r6, r1
  83 0006 1700     		movs	r7, r2
  84 0008 1D00     		movs	r5, r3
ARM GAS  C:\Users\write\AppData\Local\Temp\ccVkjSQc.s 			page 4


  88:sensor.c      ****     I2C_I2CMasterClearStatus(); //clear the garbage
  85              		.loc 1 88 0
  86 000a FFF7FEFF 		bl	I2C_I2CMasterClearStatus
  87              	.LVL7:
  89:sensor.c      ****   
  90:sensor.c      ****     int ms_timeout = 20; 
  91:sensor.c      ****     int32_t BNO055_iERROR = 0; // this is the "status" we usually use in our R/W functions 
  92:sensor.c      **** 	uint8_t idx;
  93:sensor.c      **** 	BNO055_iERROR = I2C_I2CMasterSendStart(dev_addr, I2C_I2C_WRITE_XFER_MODE, ms_timeout);
  88              		.loc 1 93 0
  89 000e 1422     		movs	r2, #20
  90 0010 0021     		movs	r1, #0
  91 0012 2000     		movs	r0, r4
  92 0014 FFF7FEFF 		bl	I2C_I2CMasterSendStart
  93              	.LVL8:
  94:sensor.c      **** 	// Check for BNO055_iERROR before proceeding
  95:sensor.c      **** 	BNO055_iERROR = I2C_I2CMasterWriteByte(reg_addr, ms_timeout);
  94              		.loc 1 95 0
  95 0018 1421     		movs	r1, #20
  96 001a 3000     		movs	r0, r6
  97 001c FFF7FEFF 		bl	I2C_I2CMasterWriteByte
  98              	.LVL9:
  96:sensor.c      **** 	// Check for BNO055_iERROR before proceeding
  97:sensor.c      **** 	BNO055_iERROR = I2C_I2CMasterSendStop(10);
  99              		.loc 1 97 0
 100 0020 0A20     		movs	r0, #10
 101 0022 FFF7FEFF 		bl	I2C_I2CMasterSendStop
 102              	.LVL10:
  98:sensor.c      **** 	
  99:sensor.c      **** 	BNO055_iERROR = I2C_I2CMasterSendStart(dev_addr, I2C_I2C_READ_XFER_MODE, ms_timeout);
 103              		.loc 1 99 0
 104 0026 1422     		movs	r2, #20
 105 0028 0121     		movs	r1, #1
 106 002a 2000     		movs	r0, r4
 107 002c FFF7FEFF 		bl	I2C_I2CMasterSendStart
 108              	.LVL11:
 109 0030 0600     		movs	r6, r0
 110              	.LVL12:
 100:sensor.c      ****     //PrintInt(BNO055_iERROR);
 101:sensor.c      **** 	for (idx = 0; (idx < cnt) && (BNO055_iERROR == 0); idx++)
 111              		.loc 1 101 0
 112 0032 0024     		movs	r4, #0
 113 0034 0FE0     		b	.L3
 114              	.LVL13:
 115              	.L7:
 102:sensor.c      **** 	{
 103:sensor.c      ****         if (idx < cnt-1)
 116              		.loc 1 103 0
 117 0036 6B1E     		subs	r3, r5, #1
 118 0038 9C42     		cmp	r4, r3
 119 003a 05DA     		bge	.L4
 104:sensor.c      ****         {
 105:sensor.c      **** 		    I2C_I2CMasterReadByte(I2C_I2C_ACK_DATA, &reg_data[idx], ms_timeout);
 120              		.loc 1 105 0
 121 003c 3919     		adds	r1, r7, r4
 122 003e 1422     		movs	r2, #20
 123 0040 0020     		movs	r0, #0
ARM GAS  C:\Users\write\AppData\Local\Temp\ccVkjSQc.s 			page 5


 124 0042 FFF7FEFF 		bl	I2C_I2CMasterReadByte
 125              	.LVL14:
 126 0046 04E0     		b	.L5
 127              	.L4:
 106:sensor.c      ****         }
 107:sensor.c      ****         else
 108:sensor.c      ****         {
 109:sensor.c      ****             I2C_I2CMasterReadByte(I2C_I2C_NAK_DATA, &reg_data[idx], ms_timeout);
 128              		.loc 1 109 0
 129 0048 3919     		adds	r1, r7, r4
 130 004a 1422     		movs	r2, #20
 131 004c 0120     		movs	r0, #1
 132 004e FFF7FEFF 		bl	I2C_I2CMasterReadByte
 133              	.LVL15:
 134              	.L5:
 101:sensor.c      **** 	{
 135              		.loc 1 101 0 discriminator 2
 136 0052 0134     		adds	r4, r4, #1
 137              	.LVL16:
 138 0054 E4B2     		uxtb	r4, r4
 139              	.LVL17:
 140              	.L3:
 101:sensor.c      **** 	{
 141              		.loc 1 101 0 is_stmt 0 discriminator 1
 142 0056 AC42     		cmp	r4, r5
 143 0058 01D2     		bcs	.L6
 101:sensor.c      **** 	{
 144              		.loc 1 101 0 discriminator 3
 145 005a 002E     		cmp	r6, #0
 146 005c EBD0     		beq	.L7
 147              	.L6:
 110:sensor.c      ****         }
 111:sensor.c      **** 	}
 112:sensor.c      **** 	// Check for BNO055_iERROR before proceeding
 113:sensor.c      **** 	BNO055_iERROR = I2C_I2CMasterSendStop(ms_timeout);
 148              		.loc 1 113 0 is_stmt 1
 149 005e 1420     		movs	r0, #20
 150 0060 FFF7FEFF 		bl	I2C_I2CMasterSendStop
 151              	.LVL18:
 114:sensor.c      **** 
 115:sensor.c      **** 	return (int8_t)BNO055_iERROR;
 152              		.loc 1 115 0
 153 0064 C0B2     		uxtb	r0, r0
 154              	.LVL19:
 116:sensor.c      **** }
 155              		.loc 1 116 0
 156              		@ sp needed
 157              	.LVL20:
 158              	.LVL21:
 159 0066 F8BD     		pop	{r3, r4, r5, r6, r7, pc}
 160              		.cfi_endproc
 161              	.LFE37:
 162              		.size	I2C_bus_read, .-I2C_bus_read
 163              		.section	.text.read_uv_sensor,"ax",%progbits
 164              		.align	2
 165              		.global	read_uv_sensor
 166              		.code	16
ARM GAS  C:\Users\write\AppData\Local\Temp\ccVkjSQc.s 			page 6


 167              		.thumb_func
 168              		.type	read_uv_sensor, %function
 169              	read_uv_sensor:
 170              	.LFB36:
  68:sensor.c      **** 	uint8_t lsb;
 171              		.loc 1 68 0
 172              		.cfi_startproc
 173              		@ args = 0, pretend = 0, frame = 8
 174              		@ frame_needed = 0, uses_anonymous_args = 0
 175 0000 10B5     		push	{r4, lr}
 176              		.cfi_def_cfa_offset 8
 177              		.cfi_offset 4, -8
 178              		.cfi_offset 14, -4
 179 0002 82B0     		sub	sp, sp, #8
 180              		.cfi_def_cfa_offset 16
  71:sensor.c      **** 	uint8_t msberror = I2C_bus_read(VEML6070_ADDR_CMD, VEML6070_ADDR_DATA_MSB, &msb, 1);
 181              		.loc 1 71 0
 182 0004 0123     		movs	r3, #1
 183 0006 6A46     		mov	r2, sp
 184 0008 0732     		adds	r2, r2, #7
 185 000a 7121     		movs	r1, #113
 186 000c 7020     		movs	r0, #112
 187 000e FFF7FEFF 		bl	I2C_bus_read
 188              	.LVL22:
 189 0012 0400     		movs	r4, r0
 190              	.LVL23:
  72:sensor.c      ****     
 191              		.loc 1 72 0
 192 0014 0123     		movs	r3, #1
 193 0016 6A46     		mov	r2, sp
 194 0018 0632     		adds	r2, r2, #6
 195 001a 7321     		movs	r1, #115
 196 001c 7020     		movs	r0, #112
 197 001e FFF7FEFF 		bl	I2C_bus_read
 198              	.LVL24:
  74:sensor.c      ****         ERR_LED_Write(0);
 199              		.loc 1 74 0
 200 0022 2043     		orrs	r0, r4
 201              	.LVL25:
 202 0024 C0B2     		uxtb	r0, r0
 203 0026 0028     		cmp	r0, #0
 204 0028 09D0     		beq	.L9
  75:sensor.c      ****         CyDelay(500);
 205              		.loc 1 75 0
 206 002a 0020     		movs	r0, #0
 207 002c FFF7FEFF 		bl	ERR_LED_Write
 208              	.LVL26:
  76:sensor.c      ****         ERR_LED_Write(1);
 209              		.loc 1 76 0
 210 0030 FA20     		movs	r0, #250
 211 0032 4000     		lsls	r0, r0, #1
 212 0034 FFF7FEFF 		bl	CyDelay
 213              	.LVL27:
  77:sensor.c      ****     }
 214              		.loc 1 77 0
 215 0038 0120     		movs	r0, #1
 216 003a FFF7FEFF 		bl	ERR_LED_Write
ARM GAS  C:\Users\write\AppData\Local\Temp\ccVkjSQc.s 			page 7


 217              	.LVL28:
 218              	.L9:
  79:sensor.c      **** }
 219              		.loc 1 79 0
 220 003e 6B46     		mov	r3, sp
 221 0040 9879     		ldrb	r0, [r3, #6]
 222 0042 0002     		lsls	r0, r0, #8
 223 0044 6B46     		mov	r3, sp
 224 0046 0733     		adds	r3, r3, #7
 225 0048 1B78     		ldrb	r3, [r3]
 226 004a 1843     		orrs	r0, r3
  80:sensor.c      **** 
 227              		.loc 1 80 0
 228 004c 02B0     		add	sp, sp, #8
 229              		@ sp needed
 230              	.LVL29:
 231 004e 10BD     		pop	{r4, pc}
 232              		.cfi_endproc
 233              	.LFE36:
 234              		.size	read_uv_sensor, .-read_uv_sensor
 235              		.section	.text.get_data,"ax",%progbits
 236              		.align	2
 237              		.global	get_data
 238              		.code	16
 239              		.thumb_func
 240              		.type	get_data, %function
 241              	get_data:
 242              	.LFB34:
  24:sensor.c      ****     CANPacket new_packet;
 243              		.loc 1 24 0
 244              		.cfi_startproc
 245              		@ args = 0, pretend = 0, frame = 16
 246              		@ frame_needed = 0, uses_anonymous_args = 0
 247              	.LVL30:
 248 0000 F0B5     		push	{r4, r5, r6, r7, lr}
 249              		.cfi_def_cfa_offset 20
 250              		.cfi_offset 4, -20
 251              		.cfi_offset 5, -16
 252              		.cfi_offset 6, -12
 253              		.cfi_offset 7, -8
 254              		.cfi_offset 14, -4
 255 0002 87B0     		sub	sp, sp, #28
 256              		.cfi_def_cfa_offset 48
 257 0004 0400     		movs	r4, r0
  26:sensor.c      ****     uint8_t target_group = GetSenderDeviceGroupCode(packet);
 258              		.loc 1 26 0
 259 0006 FFF7FEFF 		bl	DecodeTelemetryType
 260              	.LVL31:
 261 000a 0500     		movs	r5, r0
 262              	.LVL32:
  27:sensor.c      ****     uint8_t target_serial = GetSenderDeviceSerialNumber(packet);
 263              		.loc 1 27 0
 264 000c 2000     		movs	r0, r4
 265 000e FFF7FEFF 		bl	GetSenderDeviceGroupCode
 266              	.LVL33:
 267 0012 0600     		movs	r6, r0
 268              	.LVL34:
ARM GAS  C:\Users\write\AppData\Local\Temp\ccVkjSQc.s 			page 8


  28:sensor.c      ****     uint32_t sensor_val = 0;
 269              		.loc 1 28 0
 270 0014 2000     		movs	r0, r4
 271 0016 FFF7FEFF 		bl	GetSenderDeviceSerialNumber
 272              	.LVL35:
 273 001a 0400     		movs	r4, r0
 274              	.LVL36:
  30:sensor.c      ****         case HUMIDITY :
 275              		.loc 1 30 0
 276 001c 162D     		cmp	r5, #22
 277 001e 04D0     		beq	.L12
 278 0020 172D     		cmp	r5, #23
 279 0022 06D0     		beq	.L13
 280 0024 142D     		cmp	r5, #20
 281 0026 0BD1     		bne	.L17
 282 0028 07E0     		b	.L14
 283              	.L12:
  32:sensor.c      ****             break;
 284              		.loc 1 32 0
 285 002a 0020     		movs	r0, #0
 286 002c FFF7FEFF 		bl	read_ADC
 287              	.LVL37:
  33:sensor.c      ****         case TEMPERATURE :
 288              		.loc 1 33 0
 289 0030 07E0     		b	.L11
 290              	.LVL38:
 291              	.L13:
  35:sensor.c      ****             break;
 292              		.loc 1 35 0
 293 0032 0120     		movs	r0, #1
 294 0034 FFF7FEFF 		bl	read_ADC
 295              	.LVL39:
  36:sensor.c      ****         case CAN_SCIENCE_SENSOR_UV :
 296              		.loc 1 36 0
 297 0038 03E0     		b	.L11
 298              	.LVL40:
 299              	.L14:
  38:sensor.c      ****             break;
 300              		.loc 1 38 0
 301 003a FFF7FEFF 		bl	read_uv_sensor
 302              	.LVL41:
  39:sensor.c      ****     }
 303              		.loc 1 39 0
 304 003e 00E0     		b	.L11
 305              	.LVL42:
 306              	.L17:
  29:sensor.c      ****     switch(sensor_type) {
 307              		.loc 1 29 0
 308 0040 0020     		movs	r0, #0
 309              	.LVL43:
 310              	.L11:
  42:sensor.c      ****     //SendCANPacket returns 0x0 for successful send, 0x1 for generic error, 0x2 if all output buffe
 311              		.loc 1 42 0
 312 0042 0090     		str	r0, [sp]
 313 0044 2B00     		movs	r3, r5
 314 0046 2200     		movs	r2, r4
 315 0048 3100     		movs	r1, r6
ARM GAS  C:\Users\write\AppData\Local\Temp\ccVkjSQc.s 			page 9


 316 004a 03A8     		add	r0, sp, #12
 317              	.LVL44:
 318 004c FFF7FEFF 		bl	AssembleTelemetryReportPacket
 319              	.LVL45:
  44:sensor.c      **** 		ERR_LED_Write(0);
 320              		.loc 1 44 0
 321 0050 03A8     		add	r0, sp, #12
 322 0052 FFF7FEFF 		bl	SendCANPacket
 323              	.LVL46:
 324 0056 0028     		cmp	r0, #0
 325 0058 09D0     		beq	.L10
  45:sensor.c      ****         CyDelay(500);
 326              		.loc 1 45 0
 327 005a 0020     		movs	r0, #0
 328 005c FFF7FEFF 		bl	ERR_LED_Write
 329              	.LVL47:
  46:sensor.c      ****         ERR_LED_Write(1);
 330              		.loc 1 46 0
 331 0060 FA20     		movs	r0, #250
 332 0062 4000     		lsls	r0, r0, #1
 333 0064 FFF7FEFF 		bl	CyDelay
 334              	.LVL48:
  47:sensor.c      **** 	}
 335              		.loc 1 47 0
 336 0068 0120     		movs	r0, #1
 337 006a FFF7FEFF 		bl	ERR_LED_Write
 338              	.LVL49:
 339              	.L10:
  50:sensor.c      **** 
 340              		.loc 1 50 0
 341 006e 07B0     		add	sp, sp, #28
 342              		@ sp needed
 343              	.LVL50:
 344              	.LVL51:
 345              	.LVL52:
 346 0070 F0BD     		pop	{r4, r5, r6, r7, pc}
 347              		.cfi_endproc
 348              	.LFE34:
 349              		.size	get_data, .-get_data
 350 0072 C046     		.text
 351              	.Letext0:
 352              		.file 2 "c:\\program files (x86)\\cypress\\psoc creator\\4.4\\psoc creator\\import\\gnu\\arm\\5.4.
 353              		.file 3 "c:\\program files (x86)\\cypress\\psoc creator\\4.4\\psoc creator\\import\\gnu\\arm\\5.4.
 354              		.file 4 "CANPacket.h"
 355              		.file 5 "Generated_Source\\PSoC4/ADC.h"
 356              		.file 6 "Generated_Source\\PSoC4/I2C_I2C.h"
 357              		.file 7 "Generated_Source\\PSoC4/ERR_LED.h"
 358              		.file 8 "Generated_Source\\PSoC4/CyLib.h"
 359              		.file 9 "CANCommon.h"
 360              		.file 10 "Port.h"