ARM GAS  C:\Users\write\AppData\Local\Temp\ccO2z8Lq.s 			page 1


   1              		.syntax unified
   2              		.cpu cortex-m0
   3              		.fpu softvfp
   4              		.eabi_attribute 20, 1
   5              		.eabi_attribute 21, 1
   6              		.eabi_attribute 23, 3
   7              		.eabi_attribute 24, 1
   8              		.eabi_attribute 25, 1
   9              		.eabi_attribute 26, 1
  10              		.eabi_attribute 30, 1
  11              		.eabi_attribute 34, 0
  12              		.eabi_attribute 18, 4
  13              		.thumb
  14              		.syntax unified
  15              		.file	"servo.c"
  16              		.text
  17              	.Ltext0:
  18              		.cfi_sections	.debug_frame
  19              		.global	__aeabi_idiv
  20              		.section	.text.set_servo_position,"ax",%progbits
  21              		.align	2
  22              		.global	set_servo_position
  23              		.code	16
  24              		.thumb_func
  25              		.type	set_servo_position, %function
  26              	set_servo_position:
  27              	.LFB34:
  28              		.file 1 "servo.c"
   1:servo.c       **** /* ========================================
   2:servo.c       ****  *
   3:servo.c       ****  * Copyright YOUR COMPANY, THE YEAR
   4:servo.c       ****  * All Rights Reserved
   5:servo.c       ****  * UNPUBLISHED, LICENSED SOFTWARE.
   6:servo.c       ****  *
   7:servo.c       ****  * CONFIDENTIAL AND PROPRIETARY INFORMATION
   8:servo.c       ****  * WHICH IS THE PROPERTY OF your company.
   9:servo.c       ****  *
  10:servo.c       ****  * ========================================
  11:servo.c       **** */
  12:servo.c       **** #include <stdint.h>
  13:servo.c       **** #include "CANLibrary.h"
  14:servo.c       **** #include "CANScience.h"
  15:servo.c       **** #include "PCA9685.h"
  16:servo.c       **** #include "project.h"
  17:servo.c       **** #include "servo.h"
  18:servo.c       **** 
  19:servo.c       **** //referenced John's past work
  20:servo.c       **** void set_servo_position(int servo, int degrees){
  29              		.loc 1 20 0
  30              		.cfi_startproc
  31              		@ args = 0, pretend = 0, frame = 0
  32              		@ frame_needed = 0, uses_anonymous_args = 0
  33              	.LVL0:
  34 0000 70B5     		push	{r4, r5, r6, lr}
  35              		.cfi_def_cfa_offset 16
  36              		.cfi_offset 4, -16
  37              		.cfi_offset 5, -12
ARM GAS  C:\Users\write\AppData\Local\Temp\ccO2z8Lq.s 			page 2


  38              		.cfi_offset 6, -8
  39              		.cfi_offset 14, -4
  40 0002 0400     		movs	r4, r0
  21:servo.c       ****     int offset;
  22:servo.c       ****     int scalar;
  23:servo.c       ****     int divisor;
  24:servo.c       ****     if(degrees > 179) degrees = 179;
  41              		.loc 1 24 0
  42 0004 B329     		cmp	r1, #179
  43 0006 00DD     		ble	.L2
  44 0008 B321     		movs	r1, #179
  45              	.LVL1:
  46              	.L2:
  25:servo.c       **** 	if(degrees < 1) degrees = 1;
  47              		.loc 1 25 0
  48 000a 0029     		cmp	r1, #0
  49 000c 00DC     		bgt	.L3
  50 000e 0121     		movs	r1, #1
  51              	.LVL2:
  52              	.L3:
  26:servo.c       **** 	if(servo < 0 || servo > 4){
  53              		.loc 1 26 0
  54 0010 042C     		cmp	r4, #4
  55 0012 18D8     		bhi	.L1
  27:servo.c       **** 		return;
  28:servo.c       **** 	}
  29:servo.c       ****     switch(servo) {
  56              		.loc 1 29 0
  57 0014 012C     		cmp	r4, #1
  58 0016 0BD0     		beq	.L10
  59 0018 022C     		cmp	r4, #2
  60 001a 01D0     		beq	.L7
  61 001c 002C     		cmp	r4, #0
  62 001e 03D1     		bne	.L11
  63              	.L7:
  30:servo.c       ****         case PIN0 : //Futaba S3003
  31:servo.c       ****             offset = 113;
  32:servo.c       ****             scalar = 82;
  33:servo.c       ****             divisor = 179;
  64              		.loc 1 33 0
  65 0020 B323     		movs	r3, #179
  32:servo.c       ****             divisor = 179;
  66              		.loc 1 32 0
  67 0022 5220     		movs	r0, #82
  68              	.LVL3:
  31:servo.c       ****             scalar = 82;
  69              		.loc 1 31 0
  70 0024 7125     		movs	r5, #113
  71 0026 06E0     		b	.L6
  72              	.LVL4:
  73              	.L11:
  34:servo.c       ****             break;
  35:servo.c       ****         case PIN1 : //HSB-9380TH
  36:servo.c       ****             offset = 72;
  37:servo.c       ****             scalar = 164;
  38:servo.c       ****             divisor = 205;
  39:servo.c       ****             break;
ARM GAS  C:\Users\write\AppData\Local\Temp\ccO2z8Lq.s 			page 3


  40:servo.c       ****         case PIN2 : //HiTEC HS-645MG
  41:servo.c       ****             offset = 113;
  42:servo.c       ****             scalar = 82;
  43:servo.c       ****             divisor = 179;
  44:servo.c       ****             break;
  45:servo.c       ****         default: //john
  46:servo.c       ****             offset = 102;
  47:servo.c       ****             scalar = 99;
  48:servo.c       ****             divisor = 172;
  74              		.loc 1 48 0
  75 0028 AC23     		movs	r3, #172
  47:servo.c       ****             divisor = 172;
  76              		.loc 1 47 0
  77 002a 6320     		movs	r0, #99
  78              	.LVL5:
  46:servo.c       ****             scalar = 99;
  79              		.loc 1 46 0
  80 002c 6625     		movs	r5, #102
  49:servo.c       ****             break;
  81              		.loc 1 49 0
  82 002e 02E0     		b	.L6
  83              	.LVL6:
  84              	.L10:
  38:servo.c       ****             break;
  85              		.loc 1 38 0
  86 0030 CD23     		movs	r3, #205
  37:servo.c       ****             divisor = 205;
  87              		.loc 1 37 0
  88 0032 A420     		movs	r0, #164
  89              	.LVL7:
  36:servo.c       ****             scalar = 164;
  90              		.loc 1 36 0
  91 0034 4825     		movs	r5, #72
  92              	.L6:
  93              	.LVL8:
  50:servo.c       ****     }    
  51:servo.c       **** 	setPWMFromDutyCycle(servo, offset + (degrees * scalar) / divisor);
  94              		.loc 1 51 0
  95 0036 4843     		muls	r0, r1
  96              	.LVL9:
  97 0038 1900     		movs	r1, r3
  98              	.LVL10:
  99 003a FFF7FEFF 		bl	__aeabi_idiv
 100              	.LVL11:
 101 003e 2918     		adds	r1, r5, r0
 102 0040 2000     		movs	r0, r4
 103 0042 FFF7FEFF 		bl	setPWMFromDutyCycle
 104              	.LVL12:
 105              	.L1:
  52:servo.c       **** }
 106              		.loc 1 52 0
 107              		@ sp needed
 108              	.LVL13:
 109 0046 70BD     		pop	{r4, r5, r6, pc}
 110              		.cfi_endproc
 111              	.LFE34:
 112              		.size	set_servo_position, .-set_servo_position
ARM GAS  C:\Users\write\AppData\Local\Temp\ccO2z8Lq.s 			page 4


 113              		.global	__aeabi_i2d
 114              		.global	__aeabi_dmul
 115              		.global	__aeabi_ddiv
 116              		.global	__aeabi_dsub
 117              		.global	__aeabi_dadd
 118              		.global	__aeabi_d2iz
 119              		.section	.text.set_servo_continuous,"ax",%progbits
 120              		.align	2
 121              		.global	set_servo_continuous
 122              		.code	16
 123              		.thumb_func
 124              		.type	set_servo_continuous, %function
 125              	set_servo_continuous:
 126              	.LFB35:
  53:servo.c       **** 
  54:servo.c       **** void set_servo_continuous(int servo, int direction, int speed, int miliDegrees){
 127              		.loc 1 54 0
 128              		.cfi_startproc
 129              		@ args = 0, pretend = 0, frame = 16
 130              		@ frame_needed = 0, uses_anonymous_args = 0
 131              	.LVL14:
 132 0000 F0B5     		push	{r4, r5, r6, r7, lr}
 133              		.cfi_def_cfa_offset 20
 134              		.cfi_offset 4, -20
 135              		.cfi_offset 5, -16
 136              		.cfi_offset 6, -12
 137              		.cfi_offset 7, -8
 138              		.cfi_offset 14, -4
 139 0002 85B0     		sub	sp, sp, #20
 140              		.cfi_def_cfa_offset 40
 141 0004 0600     		movs	r6, r0
 142 0006 0391     		str	r1, [sp, #12]
 143 0008 1400     		movs	r4, r2
 144 000a 1F00     		movs	r7, r3
 145              	.LVL15:
  55:servo.c       **** // Do math to control servo, stable is 1.5, so use given direction and speed to determine what puls
  56:servo.c       ****     
  57:servo.c       ****     int32_t tickGoal = miliDegrees;
  58:servo.c       ****     int range = 0;
  59:servo.c       ****     double duty = 0;
  60:servo.c       ****     int notfound = 0;
  61:servo.c       ****     switch(servo) {
 146              		.loc 1 61 0
 147 000c 0328     		cmp	r0, #3
 148 000e 02D0     		beq	.L14
 149 0010 0428     		cmp	r0, #4
 150 0012 10D0     		beq	.L23
 151 0014 02E0     		b	.L24
 152              	.L14:
  60:servo.c       ****     switch(servo) {
 153              		.loc 1 60 0
 154 0016 0025     		movs	r5, #0
  62:servo.c       ****         case PIN3 : //HSR-1425CR
  63:servo.c       ****             range = 41;
 155              		.loc 1 63 0
 156 0018 2920     		movs	r0, #41
 157              	.LVL16:
ARM GAS  C:\Users\write\AppData\Local\Temp\ccO2z8Lq.s 			page 5


 158 001a 0EE0     		b	.L15
 159              	.LVL17:
 160              	.L24:
  64:servo.c       ****             break;
  65:servo.c       ****         case PIN4: //Parallax Rotation
  66:servo.c       ****             range = 20;
  67:servo.c       ****             break;
  68:servo.c       ****         default:
  69:servo.c       ****             notfound = 1;
  70:servo.c       ****             ERR_LED_Write(0);
 161              		.loc 1 70 0
 162 001c 0020     		movs	r0, #0
 163              	.LVL18:
 164 001e FFF7FEFF 		bl	ERR_LED_Write
 165              	.LVL19:
  71:servo.c       ****             CyDelay(500);
 166              		.loc 1 71 0
 167 0022 FA20     		movs	r0, #250
 168 0024 4000     		lsls	r0, r0, #1
 169 0026 FFF7FEFF 		bl	CyDelay
 170              	.LVL20:
  72:servo.c       ****             ERR_LED_Write(1);
 171              		.loc 1 72 0
 172 002a 0120     		movs	r0, #1
 173 002c FFF7FEFF 		bl	ERR_LED_Write
 174              	.LVL21:
  69:servo.c       ****             ERR_LED_Write(0);
 175              		.loc 1 69 0
 176 0030 0125     		movs	r5, #1
  58:servo.c       ****     double duty = 0;
 177              		.loc 1 58 0
 178 0032 0020     		movs	r0, #0
  73:servo.c       ****             break;
 179              		.loc 1 73 0
 180 0034 01E0     		b	.L15
 181              	.LVL22:
 182              	.L23:
  60:servo.c       ****     switch(servo) {
 183              		.loc 1 60 0
 184 0036 0025     		movs	r5, #0
  66:servo.c       ****             break;
 185              		.loc 1 66 0
 186 0038 1420     		movs	r0, #20
 187              	.LVL23:
 188              	.L15:
  74:servo.c       ****     }
  75:servo.c       ****     duty = (((double)range) * speed) / 100;
 189              		.loc 1 75 0
 190 003a FFF7FEFF 		bl	__aeabi_i2d
 191              	.LVL24:
 192 003e 0090     		str	r0, [sp]
 193 0040 0191     		str	r1, [sp, #4]
 194 0042 2000     		movs	r0, r4
 195 0044 FFF7FEFF 		bl	__aeabi_i2d
 196              	.LVL25:
 197 0048 009A     		ldr	r2, [sp]
 198 004a 019B     		ldr	r3, [sp, #4]
ARM GAS  C:\Users\write\AppData\Local\Temp\ccO2z8Lq.s 			page 6


 199 004c FFF7FEFF 		bl	__aeabi_dmul
 200              	.LVL26:
 201 0050 0022     		movs	r2, #0
 202 0052 1A4B     		ldr	r3, .L25
 203 0054 FFF7FEFF 		bl	__aeabi_ddiv
 204              	.LVL27:
  76:servo.c       ****     if (speed != 0) {        
 205              		.loc 1 76 0
 206 0058 002C     		cmp	r4, #0
 207 005a 10D0     		beq	.L16
  77:servo.c       ****         if (direction == 0) { //clockwise
 208              		.loc 1 77 0
 209 005c 039B     		ldr	r3, [sp, #12]
 210 005e 002B     		cmp	r3, #0
 211 0060 06D1     		bne	.L17
  78:servo.c       ****             duty = 153 - duty;
 212              		.loc 1 78 0
 213 0062 0200     		movs	r2, r0
 214 0064 0B00     		movs	r3, r1
 215 0066 0020     		movs	r0, #0
 216              	.LVL28:
 217 0068 1549     		ldr	r1, .L25+4
 218 006a FFF7FEFF 		bl	__aeabi_dsub
 219              	.LVL29:
 220 006e 06E0     		b	.L16
 221              	.L17:
  79:servo.c       ****         } else if (direction == 1) { //counterclockwise
 222              		.loc 1 79 0
 223 0070 039B     		ldr	r3, [sp, #12]
 224 0072 012B     		cmp	r3, #1
 225 0074 03D1     		bne	.L16
  80:servo.c       ****             duty += 154;
 226              		.loc 1 80 0
 227 0076 0022     		movs	r2, #0
 228 0078 124B     		ldr	r3, .L25+8
 229 007a FFF7FEFF 		bl	__aeabi_dadd
 230              	.LVL30:
 231              	.L16:
  81:servo.c       ****         }
  82:servo.c       ****     }
  83:servo.c       ****     if (notfound == 0) { //if correct servo id
 232              		.loc 1 83 0
 233 007e 002D     		cmp	r5, #0
 234 0080 05D1     		bne	.L18
  84:servo.c       ****         setPWMFromDutyCycle(servo, duty);
 235              		.loc 1 84 0
 236 0082 FFF7FEFF 		bl	__aeabi_d2iz
 237              	.LVL31:
 238 0086 0100     		movs	r1, r0
 239 0088 3000     		movs	r0, r6
 240 008a FFF7FEFF 		bl	setPWMFromDutyCycle
 241              	.LVL32:
 242              	.L18:
  85:servo.c       ****     }
  86:servo.c       ****         
  87:servo.c       ****     if (servo == PIN3){ //HSR-1425CR
 243              		.loc 1 87 0
ARM GAS  C:\Users\write\AppData\Local\Temp\ccO2z8Lq.s 			page 7


 244 008e 032E     		cmp	r6, #3
 245 0090 07D1     		bne	.L19
 246              	.L20:
  88:servo.c       ****         while (QuadDec_1_GetCounter() < tickGoal){};
 247              		.loc 1 88 0 discriminator 1
 248 0092 FFF7FEFF 		bl	QuadDec_1_GetCounter
 249              	.LVL33:
 250 0096 8742     		cmp	r7, r0
 251 0098 FBDC     		bgt	.L20
  89:servo.c       ****         setPWMFromDutyCycle(servo, 0);
 252              		.loc 1 89 0
 253 009a 0021     		movs	r1, #0
 254 009c 3000     		movs	r0, r6
 255 009e FFF7FEFF 		bl	setPWMFromDutyCycle
 256              	.LVL34:
 257              	.L19:
  90:servo.c       ****         //if ((QuadDec_1_GetCounter() - tickGoal) >= 5){correctPosition(servo, 1);}
  91:servo.c       ****         //if ((QuadDec_1_GetCounter() - tickGoal) <= 5){correctPosition(servo, 0);}
  92:servo.c       ****     }
  93:servo.c       ****            
  94:servo.c       ****     if (servo == PIN4){ //Parallax Rotation
 258              		.loc 1 94 0
 259 00a2 042E     		cmp	r6, #4
 260 00a4 07D1     		bne	.L12
 261              	.L22:
  95:servo.c       ****         while (QuadDec_2_GetCounter() < tickGoal){};
 262              		.loc 1 95 0 discriminator 1
 263 00a6 FFF7FEFF 		bl	QuadDec_2_GetCounter
 264              	.LVL35:
 265 00aa 8742     		cmp	r7, r0
 266 00ac FBDC     		bgt	.L22
  96:servo.c       ****         setPWMFromDutyCycle(servo, 0);
 267              		.loc 1 96 0
 268 00ae 0021     		movs	r1, #0
 269 00b0 3000     		movs	r0, r6
 270 00b2 FFF7FEFF 		bl	setPWMFromDutyCycle
 271              	.LVL36:
 272              	.L12:
  97:servo.c       ****         //if ((QuadDec_2_GetCounter() - tickGoal) >= 5){correctPosition(servo, 1);}
  98:servo.c       ****         //if ((QuadDec_2_GetCounter() - tickGoal) <= 5){correctPosition(servo, 0);}
  99:servo.c       ****     }
 100:servo.c       **** }
 273              		.loc 1 100 0
 274 00b6 05B0     		add	sp, sp, #20
 275              		@ sp needed
 276              	.LVL37:
 277              	.LVL38:
 278              	.LVL39:
 279              	.LVL40:
 280 00b8 F0BD     		pop	{r4, r5, r6, r7, pc}
 281              	.L26:
 282 00ba C046     		.align	2
 283              	.L25:
 284 00bc 00005940 		.word	1079574528
 285 00c0 00206340 		.word	1080238080
 286 00c4 00406340 		.word	1080246272
 287              		.cfi_endproc
ARM GAS  C:\Users\write\AppData\Local\Temp\ccO2z8Lq.s 			page 8


 288              	.LFE35:
 289              		.size	set_servo_continuous, .-set_servo_continuous
 290              		.section	.text.correctPosition,"ax",%progbits
 291              		.align	2
 292              		.global	correctPosition
 293              		.code	16
 294              		.thumb_func
 295              		.type	correctPosition, %function
 296              	correctPosition:
 297              	.LFB36:
 101:servo.c       **** 
 102:servo.c       **** void correctPosition(int servo, int direction){
 298              		.loc 1 102 0
 299              		.cfi_startproc
 300              		@ args = 0, pretend = 0, frame = 0
 301              		@ frame_needed = 0, uses_anonymous_args = 0
 302              	.LVL41:
 303 0000 10B5     		push	{r4, lr}
 304              		.cfi_def_cfa_offset 8
 305              		.cfi_offset 4, -8
 306              		.cfi_offset 14, -4
 103:servo.c       ****     switch(servo){
 307              		.loc 1 103 0
 308 0002 0338     		subs	r0, r0, #3
 309              	.LVL42:
 310 0004 0128     		cmp	r0, #1
 311 0006 09D9     		bls	.L27
 104:servo.c       ****         case PIN3:
 105:servo.c       ****             break;
 106:servo.c       ****         case PIN4:
 107:servo.c       ****             break;
 108:servo.c       ****         default:
 109:servo.c       ****             ERR_LED_Write(0);
 312              		.loc 1 109 0
 313 0008 0020     		movs	r0, #0
 314              	.LVL43:
 315 000a FFF7FEFF 		bl	ERR_LED_Write
 316              	.LVL44:
 110:servo.c       ****             CyDelay(500);
 317              		.loc 1 110 0
 318 000e FA20     		movs	r0, #250
 319 0010 4000     		lsls	r0, r0, #1
 320 0012 FFF7FEFF 		bl	CyDelay
 321              	.LVL45:
 111:servo.c       ****             ERR_LED_Write(1);
 322              		.loc 1 111 0
 323 0016 0120     		movs	r0, #1
 324 0018 FFF7FEFF 		bl	ERR_LED_Write
 325              	.LVL46:
 326              	.L27:
 112:servo.c       ****             break;
 113:servo.c       ****     }   
 114:servo.c       **** }
 327              		.loc 1 114 0
 328              		@ sp needed
 329 001c 10BD     		pop	{r4, pc}
 330              		.cfi_endproc
ARM GAS  C:\Users\write\AppData\Local\Temp\ccO2z8Lq.s 			page 9


 331              	.LFE36:
 332              		.size	correctPosition, .-correctPosition
 333 001e C046     		.text
 334              	.Letext0:
 335              		.file 2 "c:\\program files (x86)\\cypress\\psoc creator\\4.4\\psoc creator\\import\\gnu\\arm\\5.4.
 336              		.file 3 "c:\\program files (x86)\\cypress\\psoc creator\\4.4\\psoc creator\\import\\gnu\\arm\\5.4.
 337              		.file 4 "PCA9685.h"
 338              		.file 5 "Generated_Source\\PSoC4/ERR_LED.h"
 339              		.file 6 "Generated_Source\\PSoC4/CyLib.h"
 340              		.file 7 "Generated_Source\\PSoC4/QuadDec_1.h"
 341              		.file 8 "Generated_Source\\PSoC4/QuadDec_2.h"